Archive member included because of file (symbol)

/usr/lib/arm-linux-gnueabihf/libc_nonshared.a(elf-init.oS)
                              /usr/lib/gcc/arm-linux-gnueabihf/4.6/../../../arm-linux-gnueabihf/crt1.o (__libc_csu_init)

Allocating common symbols
Common symbol       size              file

CDR_getBuffer       0x4               libpcsxcore/plugins.o
gl_es_display       0x4               frontend/libpicofe/gl.o
PAD1_startPoll      0x4               libpcsxcore/plugins.o
psxUnmapHook        0x4               libpcsxcore/psxmem.o
Config              0xd0e             libpcsxcore/psxcommon.o
plat_sdl_screen     0x4               frontend/libpicofe/plat_sdl.o
PAD1_setSensitive   0x4               libpcsxcore/plugins.o
regArea             0x4e20            plugins/dfsound/spu.o
PAD2_setSensitive   0x4               libpcsxcore/plugins.o
source              0x4               libpcsxcore/new_dynarec/new_dynarec.o
GPU_displayText     0x4               libpcsxcore/plugins.o
biosB0              0x400             libpcsxcore/psxbios.o
PAD2_close          0x4               libpcsxcore/plugins.o
opcode2             0x1000            libpcsxcore/new_dynarec/new_dynarec.o
NET_recvPadData     0x4               libpcsxcore/plugins.o
PAD1_init           0x4               libpcsxcore/plugins.o
SPU_configure       0x4               libpcsxcore/plugins.o
jump_out            0x4000            libpcsxcore/new_dynarec/new_dynarec.o
PAD2_query          0x4               libpcsxcore/plugins.o
slen                0x4               libpcsxcore/new_dynarec/new_dynarec.o
g_layer_w           0x4               frontend/plugin_lib.o
PAD1_about          0x4               libpcsxcore/plugins.o
dwNoiseCount        0x4               plugins/dfsound/spu.o
PAD2_startPoll      0x4               libpcsxcore/plugins.o
PAD2_keypressed     0x4               libpcsxcore/plugins.o
SPU_async           0x4               libpcsxcore/plugins.o
CDR_getStatus       0x4               libpcsxcore/plugins.o
copy                0x4               libpcsxcore/new_dynarec/new_dynarec.o
GPU_readData        0x4               libpcsxcore/plugins.o
pr32                0x8000            libpcsxcore/new_dynarec/new_dynarec.o
NET_open            0x4               libpcsxcore/plugins.o
literalcount        0x4               libpcsxcore/new_dynarec/new_dynarec.o
GPU_about           0x4               libpcsxcore/plugins.o
in_state_gun        0x4               frontend/plugin_lib.o
CDR_configure       0x4               libpcsxcore/plugins.o
NET_sendData        0x4               libpcsxcore/plugins.o
CDR_getDriveLetter  0x4               libpcsxcore/plugins.o
GPU_configure       0x4               libpcsxcore/plugins.o
GPU_writeDataMem    0x4               libpcsxcore/plugins.o
PAD1_poll           0x4               libpcsxcore/plugins.o
dep2                0x1000            libpcsxcore/new_dynarec/new_dynarec.o
in_evdev_allow_abs_only
                    0x4               frontend/libpicofe/linux/in_evdev.o
spuMem              0x80000           plugins/dfsound/spu.o
NET_setInfo         0x4               libpcsxcore/plugins.o
linkcount           0x4               libpcsxcore/new_dynarec/new_dynarec.o
g_opts              0x4               frontend/menu.o
SPU_open            0x4               libpcsxcore/plugins.o
decode_pos          0x4               plugins/dfsound/spu.o
unneeded_reg        0x8000            libpcsxcore/new_dynarec/new_dynarec.o
SPU_playSample      0x4               libpcsxcore/plugins.o
cdrIsoMultidiskSelect
                    0x4               libpcsxcore/cdriso.o
SPU_shutdown        0x4               libpcsxcore/plugins.o
SPU_registerCallback
                    0x4               libpcsxcore/plugins.o
rs1                 0x1000            libpcsxcore/new_dynarec/new_dynarec.o
gte_handlers        0x100             libpcsxcore/new_dynarec/emu_if.o
out                 0x4               libpcsxcore/new_dynarec/new_dynarec.o
CDR_test            0x4               libpcsxcore/plugins.o
GPU_init            0x4               libpcsxcore/plugins.o
padd1               0x66              libpcsxcore/plugins.o
g_menuscreen_h      0x4               frontend/menu.o
jump_in             0x4000            libpcsxcore/new_dynarec/new_dynarec.o
biosC0              0x400             libpcsxcore/psxbios.o
PAD1_shutdown       0x4               libpcsxcore/plugins.o
PAD1_open           0x4               libpcsxcore/plugins.o
GPU_vBlank          0x4               libpcsxcore/plugins.o
Mcd2Data            0x20000           libpcsxcore/sio.o
stop_after_jal      0x4               libpcsxcore/new_dynarec/new_dynarec.o
SPU_playCDDAchannel
                    0x4               libpcsxcore/plugins.o
NET_configure       0x4               libpcsxcore/plugins.o
GPU_getScreenPic    0x4               libpcsxcore/plugins.o
soft_scaling        0x4               frontend/menu.o
PAD1_keypressed     0x4               libpcsxcore/plugins.o
needed_reg          0x4000            libpcsxcore/new_dynarec/new_dynarec.o
gpu                 0x1108            plugins/gpulib/gpu.o
rvb                 0xfc              plugins/dfsound/spu.o
g_layer_y           0x4               frontend/plugin_lib.o
PAD1_close          0x4               libpcsxcore/plugins.o
CurByte             0x1               plugins/dfinput/main.o
itype               0x1000            libpcsxcore/new_dynarec/new_dynarec.o
NET_close           0x4               libpcsxcore/plugins.o
tsdev               0x4               frontend/plugin_lib.o
rs2                 0x1000            libpcsxcore/new_dynarec/new_dynarec.o
dwNoiseVal          0x4               plugins/dfsound/spu.o
CDR_init            0x4               libpcsxcore/plugins.o
spuMemC             0x4               plugins/dfsound/spu.o
pl_plat_hud_print   0x4               frontend/plugin_lib.o
rt2                 0x1000            libpcsxcore/new_dynarec/new_dynarec.o
padd2               0x66              libpcsxcore/plugins.o
had_dma             0x4               plugins/dfsound/spu.o
GPU_freeze          0x4               libpcsxcore/plugins.o
PAD2_readPort2      0x4               libpcsxcore/plugins.o
psxMapHook          0x4               libpcsxcore/psxmem.o
instr_addr          0x4000            libpcsxcore/new_dynarec/new_dynarec.o
PAD2_open           0x4               libpcsxcore/plugins.o
Mcd1Data            0x20000           libpcsxcore/sio.o
in_type1            0x4               frontend/plugin_lib.o
opcode              0x1000            libpcsxcore/new_dynarec/new_dynarec.o
CDR_stop            0x4               libpcsxcore/plugins.o
SPU_playADPCMchannel
                    0x4               libpcsxcore/plugins.o
cop1_usable         0x4               libpcsxcore/new_dynarec/new_dynarec.o
us2                 0x1000            libpcsxcore/new_dynarec/new_dynarec.o
will_dirty          0x4000            libpcsxcore/new_dynarec/new_dynarec.o
plat_sdl_quit_cb    0x4               frontend/libpicofe/plat_sdl.o
g_menubg_ptr        0x4               frontend/menu.o
p32                 0x8000            libpcsxcore/new_dynarec/new_dynarec.o
PAD2_init           0x4               libpcsxcore/plugins.o
biosA0              0x400             libpcsxcore/psxbios.o
g_menuscreen_w      0x4               frontend/menu.o
NET_test            0x4               libpcsxcore/plugins.o
GPU_keypressed      0x4               libpcsxcore/plugins.o
CDR_getTN           0x4               libpcsxcore/plugins.o
lt1                 0x1000            libpcsxcore/new_dynarec/new_dynarec.o
SPU_writeRegister   0x4               libpcsxcore/plugins.o
in_adev_is_nublike  0x8               frontend/plugin_lib.o
CDR_open            0x4               libpcsxcore/plugins.o
SPU_test            0x4               libpcsxcore/plugins.o
out_current         0x4               plugins/dfsound/out.o
jump_dirty          0x4000            libpcsxcore/new_dynarec/new_dynarec.o
in_enable_vibration
                    0x4               frontend/plugin_lib.o
GPU_shutdown        0x4               libpcsxcore/plugins.o
GPU_close           0x4               libpcsxcore/plugins.o
NET_resume          0x4               libpcsxcore/plugins.o
NET_recvData        0x4               libpcsxcore/plugins.o
regmap_pre          0xd000            libpcsxcore/new_dynarec/new_dynarec.o
SPU_init            0x4               libpcsxcore/plugins.o
pl_vout_buf         0x4               frontend/plugin_lib.o
ba                  0x4000            libpcsxcore/new_dynarec/new_dynarec.o
plat_sdl_gl_active  0x4               frontend/libpicofe/plat_sdl.o
GPU_writeData       0x4               libpcsxcore/plugins.o
SPU_freeze          0x4               libpcsxcore/plugins.o
in_type2            0x4               frontend/plugin_lib.o
plat_sdl_resize_cb  0x4               frontend/libpicofe/plat_sdl.o
analog_deadzone     0x4               frontend/menu.o
dep1                0x1000            libpcsxcore/new_dynarec/new_dynarec.o
PAD2_test           0x4               libpcsxcore/plugins.o
gpuDisp             0x4               frontend/main.o
requires_32bit      0x8000            libpcsxcore/new_dynarec/new_dynarec.o
NET_pause           0x4               libpcsxcore/plugins.o
us1                 0x1000            libpcsxcore/new_dynarec/new_dynarec.o
ffile               0x40              libpcsxcore/psxbios.o
shadow              0x100000          libpcsxcore/new_dynarec/new_dynarec.o
McdDisable          0x2               libpcsxcore/sio.o
ChanBuf             0x16c             plugins/dfsound/spu.o
SPU_about           0x4               libpcsxcore/plugins.o
new_dynarec_did_compile
                    0x4               libpcsxcore/new_dynarec/new_dynarec.o
ostr                0x100             libpcsxcore/disr3000a.o
hud_new_msg         0x4               frontend/main.o
gl_es_surface       0x4               frontend/libpicofe/gl.o
SPU_writeDMAMem     0x4               libpcsxcore/plugins.o
plat_sdl_overlay    0x4               frontend/libpicofe/plat_sdl.o
g_scaler            0x4               frontend/menu.o
SPU_writeDMA        0x4               libpcsxcore/plugins.o
emu_action_old      0x4               frontend/main.o
cfgfile_basename    0x100             frontend/main.o
GPU_makeSnapshot    0x4               libpcsxcore/plugins.o
PAD2_about          0x4               libpcsxcore/plugins.o
GPU_test            0x4               libpcsxcore/plugins.o
CDR_getBufferSub    0x4               libpcsxcore/plugins.o
start               0x4               libpcsxcore/new_dynarec/new_dynarec.o
invalid_code        0x100000          libpcsxcore/new_dynarec/emu_if.o
pSpuBuffer          0x4               plugins/dfsound/spu.o
CurCmd              0x1               plugins/dfinput/main.o
PAD1_test           0x4               libpcsxcore/plugins.o
minimum_free_regs   0x1000            libpcsxcore/new_dynarec/new_dynarec.o
pl_plat_blit        0x4               frontend/plugin_lib.o
CDR_setfilename     0x4               libpcsxcore/plugins.o
imm                 0x4000            libpcsxcore/new_dynarec/new_dynarec.o
GPU_updateLace      0x4               libpcsxcore/plugins.o
likely              0x1000            libpcsxcore/new_dynarec/new_dynarec.o
CDR_readCDDA        0x4               libpcsxcore/plugins.o
PAD1_configure      0x4               libpcsxcore/plugins.o
CDR_getTD           0x4               libpcsxcore/plugins.o
g_emu_resetting     0x4               frontend/main.o
NET_sendPadData     0x4               libpcsxcore/plugins.o
cdrIsoMultidiskCount
                    0x4               libpcsxcore/cdriso.o
insn                0xa000            libpcsxcore/new_dynarec/new_dynarec.o
SPU_close           0x4               libpcsxcore/plugins.o
PAD1_query          0x4               libpcsxcore/plugins.o
PAD1_readPort1      0x4               libpcsxcore/plugins.o
cdimg_read_func     0x4               libpcsxcore/cdriso.o
pl_plat_clear       0x4               frontend/plugin_lib.o
branch_unneeded_reg_upper
                    0x8000            libpcsxcore/new_dynarec/new_dynarec.o
branch_unneeded_reg
                    0x8000            libpcsxcore/new_dynarec/new_dynarec.o
CDR_close           0x4               libpcsxcore/plugins.o
is_delayslot        0x4               libpcsxcore/new_dynarec/new_dynarec.o
unneeded_reg_upper  0x8000            libpcsxcore/new_dynarec/new_dynarec.o
ccadj               0x4000            libpcsxcore/new_dynarec/new_dynarec.o
PAD2_shutdown       0x4               libpcsxcore/plugins.o
PAD2_configure      0x4               libpcsxcore/plugins.o
CDR_readTrack       0x4               libpcsxcore/plugins.o
wont_dirty          0x4000            libpcsxcore/new_dynarec/new_dynarec.o
rt1                 0x1000            libpcsxcore/new_dynarec/new_dynarec.o
NET_queryPlayer     0x4               libpcsxcore/plugins.o
s_chan              0x12c0            plugins/dfsound/spu.o
ready_to_go         0x4               frontend/main.o
CDR_play            0x4               libpcsxcore/plugins.o
g_menubg_src_ptr    0x4               frontend/menu.o
CurPad              0x1               plugins/dfinput/main.o
sbi_sectors         0x4               libpcsxcore/ppf.o
cdr                 0x89d8            libpcsxcore/cdrom.o
NET_keypressed      0x4               libpcsxcore/plugins.o
SPU_readDMAMem      0x4               libpcsxcore/plugins.o
ooo                 0x1000            libpcsxcore/new_dynarec/new_dynarec.o
SPU_readRegister    0x4               libpcsxcore/plugins.o
hud_msg             0x40              frontend/main.o
in_keystate         0x4               frontend/plugin_lib.o
CmdLen              0x1               plugins/dfinput/main.o
PAD2_poll           0x4               libpcsxcore/plugins.o
emu_action          0x4               frontend/main.o
GPU_writeStatus     0x4               libpcsxcore/plugins.o
new_dynarec_hacks   0x4               libpcsxcore/new_dynarec/new_dynarec.o
NET_init            0x4               libpcsxcore/plugins.o
CDR_getTE           0x4               libpcsxcore/plugins.o
g_menuscreen_ptr    0x4               frontend/menu.o
pagelimit           0x4               libpcsxcore/new_dynarec/new_dynarec.o
zero_mem            0x1000            libpcsxcore/new_dynarec/pcsxmem.o
CDR_shutdown        0x4               libpcsxcore/plugins.o
event_cycles        0x38              libpcsxcore/new_dynarec/emu_if.o
translation_cache   0x1000000         libpcsxcore/new_dynarec/new_dynarec.o
is_ds               0x1000            libpcsxcore/new_dynarec/new_dynarec.o
GPU_open            0x4               libpcsxcore/plugins.o
state_slot          0x4               frontend/main.o
stubs               0x60000           libpcsxcore/new_dynarec/new_dynarec.o
hash_table          0x100000          libpcsxcore/new_dynarec/new_dynarec.o
pfile               0x4               libpcsxcore/psxbios.o
GPU_showScreenPic   0x4               libpcsxcore/plugins.o
NET_about           0x4               libpcsxcore/plugins.o
SSumLR              0x2d8             plugins/dfsound/spu.o
expirep             0x4               libpcsxcore/new_dynarec/new_dynarec.o
stubcount           0x4               libpcsxcore/new_dynarec/new_dynarec.o
GPU_dmaChain        0x4               libpcsxcore/plugins.o
GPU_clearDynarec    0x4               libpcsxcore/plugins.o
GPU_readDataMem     0x4               libpcsxcore/plugins.o
bt                  0x1000            libpcsxcore/new_dynarec/new_dynarec.o
plat_target         0x30              frontend/libpicofe/plat_dummy.o
CDR_about           0x4               libpcsxcore/plugins.o
g_layer_h           0x4               frontend/plugin_lib.o
g_emu_want_quit     0x4               frontend/main.o
SPU_readDMA         0x4               libpcsxcore/plugins.o
iFMod               0x160             plugins/dfsound/spu.o
literals            0x2000            libpcsxcore/new_dynarec/new_dynarec.o
link_addr           0xc000            libpcsxcore/new_dynarec/new_dynarec.o
soft_filter         0x4               frontend/menu.o
needs_clear_cache   0x200             libpcsxcore/new_dynarec/new_dynarec.o
NET_shutdown        0x4               libpcsxcore/plugins.o
pS                  0x4               plugins/dfsound/spu.o
nfile               0x4               libpcsxcore/psxbios.o
GPU_readStatus      0x4               libpcsxcore/plugins.o
g_layer_x           0x4               frontend/plugin_lib.o
cycle_multiplier    0x4               libpcsxcore/new_dynarec/new_dynarec.o

Discarded input sections

 .note.GNU-stack
                0x00000000        0x0 /usr/lib/gcc/arm-linux-gnueabihf/4.6/../../../arm-linux-gnueabihf/crt1.o
 .gnu_debuglink
                0x00000000        0xc /usr/lib/gcc/arm-linux-gnueabihf/4.6/../../../arm-linux-gnueabihf/crt1.o
 .note.GNU-stack
                0x00000000        0x0 /usr/lib/gcc/arm-linux-gnueabihf/4.6/../../../arm-linux-gnueabihf/crti.o
 .gnu_debuglink
                0x00000000        0xc /usr/lib/gcc/arm-linux-gnueabihf/4.6/../../../arm-linux-gnueabihf/crti.o
 .note.GNU-stack
                0x00000000        0x0 /usr/lib/gcc/arm-linux-gnueabihf/4.6/crtbegin.o
 .note.GNU-stack
                0x00000000        0x0 libpcsxcore/cdriso.o
 .note.GNU-stack
                0x00000000        0x0 libpcsxcore/cdrom.o
 .note.GNU-stack
                0x00000000        0x0 libpcsxcore/cheat.o
 .note.GNU-stack
                0x00000000        0x0 libpcsxcore/debug.o
 .note.GNU-stack
                0x00000000        0x0 libpcsxcore/decode_xa.o
 .note.GNU-stack
                0x00000000        0x0 libpcsxcore/disr3000a.o
 .note.GNU-stack
                0x00000000        0x0 libpcsxcore/mdec.o
 .note.GNU-stack
                0x00000000        0x0 libpcsxcore/misc.o
 .note.GNU-stack
                0x00000000        0x0 libpcsxcore/plugins.o
 .note.GNU-stack
                0x00000000        0x0 libpcsxcore/ppf.o
 .note.GNU-stack
                0x00000000        0x0 libpcsxcore/psxbios.o
 .note.GNU-stack
                0x00000000        0x0 libpcsxcore/psxcommon.o
 .note.GNU-stack
                0x00000000        0x0 libpcsxcore/psxcounters.o
 .note.GNU-stack
                0x00000000        0x0 libpcsxcore/psxdma.o
 .note.GNU-stack
                0x00000000        0x0 libpcsxcore/psxhle.o
 .note.GNU-stack
                0x00000000        0x0 libpcsxcore/psxhw.o
 .note.GNU-stack
                0x00000000        0x0 libpcsxcore/psxinterpreter.o
 .note.GNU-stack
                0x00000000        0x0 libpcsxcore/psxmem.o
 .note.GNU-stack
                0x00000000        0x0 libpcsxcore/r3000a.o
 .note.GNU-stack
                0x00000000        0x0 libpcsxcore/sio.o
 .note.GNU-stack
                0x00000000        0x0 libpcsxcore/socket.o
 .note.GNU-stack
                0x00000000        0x0 libpcsxcore/spu.o
 .note.GNU-stack
                0x00000000        0x0 libpcsxcore/gte.o
 .note.GNU-stack
                0x00000000        0x0 libpcsxcore/gte_nf.o
 .note.GNU-stack
                0x00000000        0x0 libpcsxcore/gte_divider.o
 .note.GNU-stack
                0x00000000        0x0 libpcsxcore/new_dynarec/new_dynarec.o
 .note.GNU-stack
                0x00000000        0x0 libpcsxcore/new_dynarec/pcsxmem.o
 .note.GNU-stack
                0x00000000        0x0 libpcsxcore/new_dynarec/emu_if.o
 .note.GNU-stack
                0x00000000        0x0 plugins/dfsound/dma.o
 .note.GNU-stack
                0x00000000        0x0 plugins/dfsound/freeze.o
 .note.GNU-stack
                0x00000000        0x0 plugins/dfsound/registers.o
 .note.GNU-stack
                0x00000000        0x0 plugins/dfsound/spu.o
 .note.GNU-stack
                0x00000000        0x0 plugins/dfsound/out.o
 .note.GNU-stack
                0x00000000        0x0 plugins/dfsound/nullsnd.o
 .note.GNU-stack
                0x00000000        0x0 plugins/dfsound/sdl.o
 .note.GNU-stack
                0x00000000        0x0 plugins/gpulib/gpu.o
 .note.GNU-stack
                0x00000000        0x0 plugins/gpulib/vout_pl.o
 .note.GNU-stack
                0x00000000        0x0 plugins/gpu_unai/gpulib_if.o
 .note.GNU-stack
                0x00000000        0x0 plugins/cdrcimg/cdrcimg.o
 .note.GNU-stack
                0x00000000        0x0 plugins/dfinput/main.o
 .note.GNU-stack
                0x00000000        0x0 plugins/dfinput/pad.o
 .note.GNU-stack
                0x00000000        0x0 plugins/dfinput/guncon.o
 .note.GNU-stack
                0x00000000        0x0 frontend/cspace.o
 .note.GNU-stack
                0x00000000        0x0 frontend/libpicofe/in_sdl.o
 .note.GNU-stack
                0x00000000        0x0 frontend/libpicofe/plat_sdl.o
 .note.GNU-stack
                0x00000000        0x0 frontend/libpicofe/plat_dummy.o
 .note.GNU-stack
                0x00000000        0x0 frontend/libpicofe/linux/in_evdev.o
 .note.GNU-stack
                0x00000000        0x0 frontend/plat_sdl.o
 .note.GNU-stack
                0x00000000        0x0 frontend/libpicofe/gl.o
 .note.GNU-stack
                0x00000000        0x0 frontend/libpicofe/gl_platform.o
 .note.GNU-stack
                0x00000000        0x0 frontend/plugin_lib.o
 .note.GNU-stack
                0x00000000        0x0 frontend/libpicofe/linux/plat.o
 .note.GNU-stack
                0x00000000        0x0 frontend/libpicofe/readpng.o
 .note.GNU-stack
                0x00000000        0x0 frontend/libpicofe/fonts.o
 .note.GNU-stack
                0x00000000        0x0 frontend/menu.o
 .note.GNU-stack
                0x00000000        0x0 frontend/libpicofe/input.o
 .note.GNU-stack
                0x00000000        0x0 frontend/pl_gun_ts.o
 .note.GNU-stack
                0x00000000        0x0 frontend/main.o
 .note.GNU-stack
                0x00000000        0x0 frontend/plugin.o
 .note.GNU-stack
                0x00000000        0x0 /usr/lib/arm-linux-gnueabihf/libc_nonshared.a(elf-init.oS)
 .note.GNU-stack
                0x00000000        0x0 /usr/lib/gcc/arm-linux-gnueabihf/4.6/crtend.o
 .note.GNU-stack
                0x00000000        0x0 /usr/lib/gcc/arm-linux-gnueabihf/4.6/../../../arm-linux-gnueabihf/crtn.o
 .gnu_debuglink
                0x00000000        0xc /usr/lib/gcc/arm-linux-gnueabihf/4.6/../../../arm-linux-gnueabihf/crtn.o

Memory Configuration

Name             Origin             Length             Attributes
*default*        0x00000000         0xffffffff

Linker script and memory map

LOAD /usr/lib/gcc/arm-linux-gnueabihf/4.6/../../../arm-linux-gnueabihf/crt1.o
LOAD /usr/lib/gcc/arm-linux-gnueabihf/4.6/../../../arm-linux-gnueabihf/crti.o
LOAD /usr/lib/gcc/arm-linux-gnueabihf/4.6/crtbegin.o
LOAD libpcsxcore/cdriso.o
LOAD libpcsxcore/cdrom.o
LOAD libpcsxcore/cheat.o
LOAD libpcsxcore/debug.o
LOAD libpcsxcore/decode_xa.o
LOAD libpcsxcore/disr3000a.o
LOAD libpcsxcore/mdec.o
LOAD libpcsxcore/misc.o
LOAD libpcsxcore/plugins.o
LOAD libpcsxcore/ppf.o
LOAD libpcsxcore/psxbios.o
LOAD libpcsxcore/psxcommon.o
LOAD libpcsxcore/psxcounters.o
LOAD libpcsxcore/psxdma.o
LOAD libpcsxcore/psxhle.o
LOAD libpcsxcore/psxhw.o
LOAD libpcsxcore/psxinterpreter.o
LOAD libpcsxcore/psxmem.o
LOAD libpcsxcore/r3000a.o
LOAD libpcsxcore/sio.o
LOAD libpcsxcore/socket.o
LOAD libpcsxcore/spu.o
LOAD libpcsxcore/gte.o
LOAD libpcsxcore/gte_nf.o
LOAD libpcsxcore/gte_divider.o
LOAD libpcsxcore/gte_arm.o
LOAD libpcsxcore/new_dynarec/new_dynarec.o
LOAD libpcsxcore/new_dynarec/linkage_arm.o
LOAD libpcsxcore/new_dynarec/pcsxmem.o
LOAD libpcsxcore/new_dynarec/emu_if.o
LOAD plugins/dfsound/dma.o
LOAD plugins/dfsound/freeze.o
LOAD plugins/dfsound/registers.o
LOAD plugins/dfsound/spu.o
LOAD plugins/dfsound/out.o
LOAD plugins/dfsound/nullsnd.o
LOAD plugins/dfsound/arm_utils.o
LOAD plugins/dfsound/sdl.o
LOAD plugins/gpulib/gpu.o
LOAD plugins/gpulib/vout_pl.o
LOAD plugins/gpu_unai/gpulib_if.o
LOAD plugins/gpu_unai/gpu_arm.o
LOAD plugins/cdrcimg/cdrcimg.o
LOAD plugins/dfinput/main.o
LOAD plugins/dfinput/pad.o
LOAD plugins/dfinput/guncon.o
LOAD frontend/cspace.o
LOAD frontend/cspace_arm.o
LOAD frontend/libpicofe/in_sdl.o
LOAD frontend/libpicofe/plat_sdl.o
LOAD frontend/libpicofe/plat_dummy.o
LOAD frontend/libpicofe/linux/in_evdev.o
LOAD frontend/plat_sdl.o
LOAD frontend/libpicofe/gl.o
LOAD frontend/libpicofe/gl_platform.o
LOAD frontend/plugin_lib.o
LOAD frontend/libpicofe/linux/plat.o
LOAD frontend/libpicofe/readpng.o
LOAD frontend/libpicofe/fonts.o
LOAD frontend/menu.o
LOAD frontend/libpicofe/input.o
LOAD frontend/pl_gun_ts.o
LOAD frontend/main.o
LOAD frontend/plugin.o
LOAD /usr/lib/arm-linux-gnueabihf/libSDL.so
LOAD /usr/lib/arm-linux-gnueabihf/libpng.so
LOAD /usr/lib/arm-linux-gnueabihf/libdl.so
LOAD /usr/lib/arm-linux-gnueabihf/libpthread.so
START GROUP
LOAD /lib/arm-linux-gnueabihf/libpthread.so.0
LOAD /usr/lib/arm-linux-gnueabihf/libpthread_nonshared.a
END GROUP
LOAD /usr/lib/arm-linux-gnueabihf/libz.so
LOAD /opt/vc/lib/libEGL.so
LOAD /opt/vc/lib/libGLESv1_CM.so
LOAD /usr/lib/gcc/arm-linux-gnueabihf/4.6/libstdc++.so
LOAD /usr/lib/arm-linux-gnueabihf/libm.so
LOAD /usr/lib/gcc/arm-linux-gnueabihf/4.6/libgcc_s.so
START GROUP
LOAD /usr/lib/gcc/arm-linux-gnueabihf/4.6/libgcc_s.so.1
LOAD /usr/lib/gcc/arm-linux-gnueabihf/4.6/libgcc.a
END GROUP
LOAD /usr/lib/gcc/arm-linux-gnueabihf/4.6/libgcc.a
LOAD /usr/lib/arm-linux-gnueabihf/libc.so
START GROUP
LOAD /lib/arm-linux-gnueabihf/libc.so.6
LOAD /usr/lib/arm-linux-gnueabihf/libc_nonshared.a
LOAD /lib/arm-linux-gnueabihf/ld-linux-armhf.so.3
END GROUP
LOAD /usr/lib/gcc/arm-linux-gnueabihf/4.6/libgcc_s.so
START GROUP
LOAD /usr/lib/gcc/arm-linux-gnueabihf/4.6/libgcc_s.so.1
LOAD /usr/lib/gcc/arm-linux-gnueabihf/4.6/libgcc.a
END GROUP
LOAD /usr/lib/gcc/arm-linux-gnueabihf/4.6/libgcc.a
LOAD /usr/lib/gcc/arm-linux-gnueabihf/4.6/crtend.o
LOAD /usr/lib/gcc/arm-linux-gnueabihf/4.6/../../../arm-linux-gnueabihf/crtn.o
                0x00008000                PROVIDE (__executable_start, 0x8000)
                0x00008134                . = (0x8000 + SIZEOF_HEADERS)

.interp         0x00008134       0x19
 *(.interp)
 .interp        0x00008134       0x19 /usr/lib/gcc/arm-linux-gnueabihf/4.6/../../../arm-linux-gnueabihf/crt1.o

.note.ABI-tag   0x00008150       0x20
 .note.ABI-tag  0x00008150       0x20 /usr/lib/gcc/arm-linux-gnueabihf/4.6/../../../arm-linux-gnueabihf/crt1.o

.note.gnu.build-id
                0x00008170       0x24
 *(.note.gnu.build-id)
 .note.gnu.build-id
                0x00008170       0x24 linker stubs

.hash           0x00008194      0x668
 *(.hash)
 .hash          0x00008194      0x668 /usr/lib/gcc/arm-linux-gnueabihf/4.6/../../../arm-linux-gnueabihf/crt1.o

.gnu.hash       0x000087fc      0x760
 *(.gnu.hash)
 .gnu.hash      0x000087fc      0x760 /usr/lib/gcc/arm-linux-gnueabihf/4.6/../../../arm-linux-gnueabihf/crt1.o

.dynsym         0x00008f5c      0xd30
 *(.dynsym)
 .dynsym        0x00008f5c      0xd30 /usr/lib/gcc/arm-linux-gnueabihf/4.6/../../../arm-linux-gnueabihf/crt1.o

.dynstr         0x00009c8c      0xa11
 *(.dynstr)
 .dynstr        0x00009c8c      0xa11 /usr/lib/gcc/arm-linux-gnueabihf/4.6/../../../arm-linux-gnueabihf/crt1.o

.gnu.version    0x0000a69e      0x1a6
 *(.gnu.version)
 .gnu.version   0x0000a69e      0x1a6 /usr/lib/gcc/arm-linux-gnueabihf/4.6/../../../arm-linux-gnueabihf/crt1.o

.gnu.version_d  0x0000a844        0x0
 *(.gnu.version_d)
 .gnu.version_d
                0x00000000        0x0 /usr/lib/gcc/arm-linux-gnueabihf/4.6/../../../arm-linux-gnueabihf/crt1.o

.gnu.version_r  0x0000a844       0xb0
 *(.gnu.version_r)
 .gnu.version_r
                0x0000a844       0xb0 /usr/lib/gcc/arm-linux-gnueabihf/4.6/../../../arm-linux-gnueabihf/crt1.o

.rel.dyn        0x0000a8f4       0x20
 *(.rel.init)
 *(.rel.text .rel.text.* .rel.gnu.linkonce.t.*)
 *(.rel.fini)
 *(.rel.rodata .rel.rodata.* .rel.gnu.linkonce.r.*)
 *(.rel.data.rel.ro* .rel.gnu.linkonce.d.rel.ro.*)
 *(.rel.data .rel.data.* .rel.gnu.linkonce.d.*)
 *(.rel.tdata .rel.tdata.* .rel.gnu.linkonce.td.*)
 *(.rel.tbss .rel.tbss.* .rel.gnu.linkonce.tb.*)
 *(.rel.ctors)
 *(.rel.dtors)
 *(.rel.got)
 .rel.got       0x0000a8f4        0x8 /usr/lib/gcc/arm-linux-gnueabihf/4.6/../../../arm-linux-gnueabihf/crt1.o
 *(.rel.bss .rel.bss.* .rel.gnu.linkonce.b.*)
 .rel.bss       0x0000a8fc       0x18 /usr/lib/gcc/arm-linux-gnueabihf/4.6/../../../arm-linux-gnueabihf/crt1.o
                0x0000a914                PROVIDE (__rel_iplt_start, .)
 *(.rel.iplt)
 .rel.iplt      0x00000000        0x0 /usr/lib/gcc/arm-linux-gnueabihf/4.6/../../../arm-linux-gnueabihf/crt1.o
                0x0000a914                PROVIDE (__rel_iplt_end, .)
                0x0000a914                PROVIDE (__rela_iplt_start, .)
                0x0000a914                PROVIDE (__rela_iplt_end, .)

.rela.dyn       0x0000a914        0x0
 *(.rela.init)
 *(.rela.text .rela.text.* .rela.gnu.linkonce.t.*)
 *(.rela.fini)
 *(.rela.rodata .rela.rodata.* .rela.gnu.linkonce.r.*)
 *(.rela.data .rela.data.* .rela.gnu.linkonce.d.*)
 *(.rela.tdata .rela.tdata.* .rela.gnu.linkonce.td.*)
 *(.rela.tbss .rela.tbss.* .rela.gnu.linkonce.tb.*)
 *(.rela.ctors)
 *(.rela.dtors)
 *(.rela.got)
 *(.rela.bss .rela.bss.* .rela.gnu.linkonce.b.*)
                0x0000a914                PROVIDE (__rel_iplt_start, .)
                0x0000a914                PROVIDE (__rel_iplt_end, .)
                0x0000a914                PROVIDE (__rela_iplt_start, .)
 *(.rela.iplt)
                0x0000a914                PROVIDE (__rela_iplt_end, .)

.rel.plt        0x0000a914      0x620
 *(.rel.plt)
 .rel.plt       0x0000a914      0x620 /usr/lib/gcc/arm-linux-gnueabihf/4.6/../../../arm-linux-gnueabihf/crt1.o

.rela.plt
 *(.rela.plt)

.init           0x0000af34        0xc
 *(.init)
 .init          0x0000af34        0x8 /usr/lib/gcc/arm-linux-gnueabihf/4.6/../../../arm-linux-gnueabihf/crti.o
                0x0000af34                _init
 .init          0x0000af3c        0x4 /usr/lib/gcc/arm-linux-gnueabihf/4.6/../../../arm-linux-gnueabihf/crtn.o

.plt            0x0000af40      0x944
 *(.plt)
 .plt           0x0000af40      0x944 /usr/lib/gcc/arm-linux-gnueabihf/4.6/../../../arm-linux-gnueabihf/crt1.o
                0x0000af54                signal@@GLIBC_2.4
                0x0000af60                glDrawArrays
                0x0000af6c                _IO_getc@@GLIBC_2.4
                0x0000af78                vc_dispmanx_display_open
                0x0000af84                SDL_Quit
                0x0000af90                SDL_Flip
                0x0000af9c                __aeabi_uldivmod@@GCC_3.5
                0x0000afa8                sync@@GLIBC_2.4
                0x0000afb4                glFrontFace
                0x0000afc0                dlerror@@GLIBC_2.4
                0x0000afcc                gettimeofday@@GLIBC_2.4
                0x0000afd8                strcasecmp@@GLIBC_2.4
                0x0000afe4                strtol@@GLIBC_2.4
                0x0000aff0                free@@GLIBC_2.4
                0x0000affc                readdir@@GLIBC_2.4
                0x0000b008                SDL_UnlockYUVOverlay
                0x0000b014                fseek@@GLIBC_2.4
                0x0000b020                gzseek
                0x0000b02c                __xstat64@@GLIBC_2.4
                0x0000b038                qsort@@GLIBC_2.4
                0x0000b044                eglCreateWindowSurface
                0x0000b050                png_create_read_struct@@PNG12_0
                0x0000b05c                strncmp@@GLIBC_2.4
                0x0000b068                glTexImage2D
                0x0000b074                uncompress
                0x0000b080                SDL_CreateYUVOverlay
                0x0000b08c                pthread_exit@@GLIBC_2.4
                0x0000b098                SDL_PeepEvents
                0x0000b0a4                __aeabi_uidivmod@@GCC_3.5
                0x0000b0b0                png_write_image@@PNG12_0
                0x0000b0bc                pthread_join@@GLIBC_2.4
                0x0000b0c8                SDL_JoystickClose
                0x0000b0d4                fgetc@@GLIBC_2.4
                0x0000b0e0                SDL_JoystickOpen
                0x0000b0ec                png_destroy_read_struct@@PNG12_0
                0x0000b0f8                SDL_JoystickName
                0x0000b104                closedir@@GLIBC_2.4
                0x0000b110                exit@@GLIBC_2.4
                0x0000b11c                png_create_info_struct@@PNG12_0
                0x0000b128                printf@@GLIBC_2.4
                0x0000b134                png_init_io@@PNG12_0
                0x0000b140                glGetError
                0x0000b14c                dlclose@@GLIBC_2.4
                0x0000b158                eglCreateContext
                0x0000b164                feof@@GLIBC_2.4
                0x0000b170                puts@@GLIBC_2.4
                0x0000b17c                strtok@@GLIBC_2.4
                0x0000b188                perror@@GLIBC_2.4
                0x0000b194                alphasort@@GLIBC_2.4
                0x0000b1a0                SDL_CloseAudio
                0x0000b1ac                SDL_WasInit
                0x0000b1b8                glTexParameterf
                0x0000b1c4                graphics_get_display_size
                0x0000b1d0                readlink@@GLIBC_2.4
                0x0000b1dc                glEnableClientState
                0x0000b1e8                SDL_NumJoysticks
                0x0000b1f4                strtoul@@GLIBC_2.4
                0x0000b200                strftime@@GLIBC_2.4
                0x0000b20c                putchar@@GLIBC_2.4
                0x0000b218                memset@@GLIBC_2.4
                0x0000b224                opendir@@GLIBC_2.4
                0x0000b230                recv@@GLIBC_2.4
                0x0000b23c                remove@@GLIBC_2.4
                0x0000b248                png_get_image_width@@PNG12_0
                0x0000b254                fcntl@@GLIBC_2.4
                0x0000b260                SDL_GetError
                0x0000b26c                listen@@GLIBC_2.4
                0x0000b278                snprintf@@GLIBC_2.4
                0x0000b284                __strdup@@GLIBC_2.4
                0x0000b290                close@@GLIBC_2.4
                0x0000b29c                SDL_PauseAudio
                0x0000b2a8                SDL_FreeYUVOverlay
                0x0000b2b4                fopen@@GLIBC_2.4
                0x0000b2c0                inflate
                0x0000b2cc                read@@GLIBC_2.4
                0x0000b2d8                abort@@GLIBC_2.4
                0x0000b2e4                eglMakeCurrent
                0x0000b2f0                vfprintf@@GLIBC_2.4
                0x0000b2fc                __ctype_toupper_loc@@GLIBC_2.4
                0x0000b308                memmove@@GLIBC_2.4
                0x0000b314                SDL_PumpEvents
                0x0000b320                inflateInit2_
                0x0000b32c                SDL_Init
                0x0000b338                eglDestroySurface
                0x0000b344                dlopen@@GLIBC_2.4
                0x0000b350                ioctl@@GLIBC_2.4
                0x0000b35c                localtime@@GLIBC_2.4
                0x0000b368                SDL_JoystickEventState
                0x0000b374                realloc@@GLIBC_2.4
                0x0000b380                strcpy@@GLIBC_2.4
                0x0000b38c                pthread_attr_setdetachstate@@GLIBC_2.4
                0x0000b398                SDL_InitSubSystem
                0x0000b3a4                mmap@@GLIBC_2.4
                0x0000b3b0                SDL_SetVideoMode
                0x0000b3bc                glEnable
                0x0000b3c8                SDL_WM_SetCaption
                0x0000b3d4                png_get_rows@@PNG12_0
                0x0000b3e0                eglGetDisplay
                0x0000b3ec                open@@GLIBC_2.4
                0x0000b3f8                eglChooseConfig
                0x0000b404                bind@@GLIBC_2.4
                0x0000b410                png_read_png@@PNG12_0
                0x0000b41c                mprotect@@GLIBC_2.4
                0x0000b428                glVertexPointer
                0x0000b434                strcat@@GLIBC_2.4
                0x0000b440                strcasestr@@GLIBC_2.4
                0x0000b44c                fread@@GLIBC_2.4
                0x0000b458                vc_dispmanx_display_close
                0x0000b464                eglInitialize
                0x0000b470                socket@@GLIBC_2.4
                0x0000b47c                SDL_QuitSubSystem
                0x0000b488                bcm_host_init
                0x0000b494                mkdir@@GLIBC_2.4
                0x0000b4a0                png_write_end@@PNG12_0
                0x0000b4ac                strstr@@GLIBC_2.4
                0x0000b4b8                scandir@@GLIBC_2.4
                0x0000b4c4                glBindTexture
                0x0000b4d0                strncasecmp@@GLIBC_2.4
                0x0000b4dc                SDL_GetVideoInfo
                0x0000b4e8                glLoadIdentity
                0x0000b4f4                select@@GLIBC_2.4
                0x0000b500                shutdown@@GLIBC_2.4
                0x0000b50c                sleep@@GLIBC_2.4
                0x0000b518                lseek@@GLIBC_2.4
                0x0000b524                __aeabi_idivmod@@GCC_3.5
                0x0000b530                __ctype_b_loc@@GLIBC_2.4
                0x0000b53c                eglDestroyContext
                0x0000b548                SDL_LockSurface
                0x0000b554                __clear_cache@@GCC_3.0
                0x0000b560                png_destroy_write_struct@@PNG12_0
                0x0000b56c                pthread_attr_init@@GLIBC_2.4
                0x0000b578                glGenTextures
                0x0000b584                SDL_GetWMInfo
                0x0000b590                calloc@@GLIBC_2.4
                0x0000b59c                strncat@@GLIBC_2.4
                0x0000b5a8                ftell@@GLIBC_2.4
                0x0000b5b4                inflateReset
                0x0000b5c0                vc_dispmanx_update_submit_sync
                0x0000b5cc                setlocale@@GLIBC_2.4
                0x0000b5d8                ferror@@GLIBC_2.4
                0x0000b5e4                SDL_UnlockSurface
                0x0000b5f0                __aeabi_uidiv@@GCC_3.5
                0x0000b5fc                png_get_image_height@@PNG12_0
                0x0000b608                fgets@@GLIBC_2.4
                0x0000b614                __aeabi_idiv@@GCC_3.5
                0x0000b620                vc_dispmanx_element_add
                0x0000b62c                fputc@@GLIBC_2.4
                0x0000b638                gzwrite
                0x0000b644                fwrite@@GLIBC_2.4
                0x0000b650                gzopen
                0x0000b65c                memcpy@@GLIBC_2.4
                0x0000b668                malloc@@GLIBC_2.4
                0x0000b674                strlen@@GLIBC_2.4
                0x0000b680                getcwd@@GLIBC_2.4
                0x0000b68c                munmap@@GLIBC_2.4
                0x0000b698                accept@@GLIBC_2.4
                0x0000b6a4                usleep@@GLIBC_2.4
                0x0000b6b0                bcm_host_deinit
                0x0000b6bc                fprintf@@GLIBC_2.4
                0x0000b6c8                fclose@@GLIBC_2.4
                0x0000b6d4                SDL_OpenAudio
                0x0000b6e0                sprintf@@GLIBC_2.4
                0x0000b6ec                png_create_write_struct@@PNG12_0
                0x0000b6f8                png_get_bit_depth@@PNG12_0
                0x0000b704                __xstat@@GLIBC_2.4
                0x0000b710                mremap@@GLIBC_2.4
                0x0000b71c                glTexSubImage2D
                0x0000b728                SDL_DisplayYUVOverlay
                0x0000b734                pthread_create@@GLIBC_2.4
                0x0000b740                eglSwapBuffers
                0x0000b74c                strcmp@@GLIBC_2.4
                0x0000b758                gzclose
                0x0000b764                eglGetError
                0x0000b770                time@@GLIBC_2.4
                0x0000b77c                __errno_location@@GLIBC_2.4
                0x0000b788                send@@GLIBC_2.4
                0x0000b794                sscanf@@GLIBC_2.4
                0x0000b7a0                strncpy@@GLIBC_2.4
                0x0000b7ac                vc_dispmanx_update_start
                0x0000b7b8                SDL_LockYUVOverlay
                0x0000b7c4                fflush@@GLIBC_2.4
                0x0000b7d0                _setjmp@@GLIBC_2.4
                0x0000b7dc                memcmp@@GLIBC_2.4
                0x0000b7e8                eglTerminate
                0x0000b7f4                png_write_info@@PNG12_0
                0x0000b800                SDL_VideoDriverName
                0x0000b80c                strrchr@@GLIBC_2.4
                0x0000b818                png_set_IHDR@@PNG12_0
                0x0000b824                gzread
                0x0000b830                getenv@@GLIBC_2.4
                0x0000b83c                __libc_start_main@@GLIBC_2.4
                0x0000b848                dlsym@@GLIBC_2.4
                0x0000b860                strchr@@GLIBC_2.4
                0x0000b86c                glTexCoordPointer
                0x0000b878                vsnprintf@@GLIBC_2.4

.iplt           0x0000b884        0x0
 *(.iplt)
 .iplt          0x00000000        0x0 /usr/lib/gcc/arm-linux-gnueabihf/4.6/../../../arm-linux-gnueabihf/crt1.o

.text           0x0000b888    0xa04f0
 *(.text.unlikely .text.*_unlikely)
 .text.unlikely
                0x0000b888      0x33c plugins/dfsound/spu.o
 *(.text.exit .text.exit.*)
 *(.text.startup .text.startup.*)
 .text.startup  0x0000bbc4      0x520 frontend/main.o
                0x0000bbc4                main
 *(.text.hot .text.hot.*)
 *(.text .stub .text.* .gnu.linkonce.t.*)
 .text          0x0000c0e4       0x3c /usr/lib/gcc/arm-linux-gnueabihf/4.6/../../../arm-linux-gnueabihf/crt1.o
                0x0000c0e4                _start
 .text          0x0000c120       0x24 /usr/lib/gcc/arm-linux-gnueabihf/4.6/../../../arm-linux-gnueabihf/crti.o
 .text          0x0000c144       0x4c /usr/lib/gcc/arm-linux-gnueabihf/4.6/crtbegin.o
 .text          0x0000c190     0x3470 libpcsxcore/cdriso.o
                0x0000c350                ISOreadCDDA
                0x0000f46c                cdrIsoInit
                0x0000f5e8                cdrIsoActive
 .text          0x0000f600     0x2d48 libpcsxcore/cdrom.o
                0x0000fbfc                cdrLidSeekInterrupt
                0x0000ff30                cdrPlayInterrupt
                0x00010290                cdrInterrupt
                0x000113f4                cdrAttenuate
                0x00011560                cdrReadInterrupt
                0x000118e0                cdrRead0
                0x0001192c                cdrWrite0
                0x0001194c                cdrRead1
                0x000119cc                cdrWrite1
                0x00011c74                cdrRead2
                0x00011c9c                cdrWrite2
                0x00011d00                cdrRead3
                0x00011d54                cdrWrite3
                0x00011e10                psxDma3
                0x00012018                cdrDmaInterrupt
                0x00012098                cdrReset
                0x00012108                cdrFreeze
                0x000122d4                LidInterrupt
 .text          0x00012348     0x1f04 libpcsxcore/cheat.o
                0x000123ac                ClearAllCheats
                0x00012440                LoadCheats
                0x000126c8                SaveCheats
                0x000127c0                ApplyCheats
                0x00012cc4                AddCheat
                0x00012ebc                RemoveCheat
                0x00012f2c                EditCheat
                0x000130b4                FreeCheatSearchResults
                0x000130e4                FreeCheatSearchMem
                0x0001310c                CheatSearchBackupMemory
                0x00013160                CheatSearchEqual8
                0x00013234                CheatSearchEqual16
                0x00013308                CheatSearchEqual32
                0x000133dc                CheatSearchNotEqual8
                0x000134a0                CheatSearchNotEqual16
                0x00013564                CheatSearchNotEqual32
                0x00013628                CheatSearchRange8
                0x0001372c                CheatSearchRange16
                0x00013830                CheatSearchRange32
                0x00013934                CheatSearchIncreasedBy8
                0x000139b8                CheatSearchIncreasedBy16
                0x00013a3c                CheatSearchIncreasedBy32
                0x00013ac0                CheatSearchDecreasedBy8
                0x00013b44                CheatSearchDecreasedBy16
                0x00013bc8                CheatSearchDecreasedBy32
                0x00013c4c                CheatSearchIncreased8
                0x00013ccc                CheatSearchIncreased16
                0x00013d4c                CheatSearchIncreased32
                0x00013dcc                CheatSearchDecreased8
                0x00013e4c                CheatSearchDecreased16
                0x00013ecc                CheatSearchDecreased32
                0x00013f4c                CheatSearchDifferent8
                0x00013fcc                CheatSearchDifferent16
                0x0001404c                CheatSearchDifferent32
                0x000140cc                CheatSearchNoChange8
                0x0001414c                CheatSearchNoChange16
                0x000141cc                CheatSearchNoChange32
 .text          0x0001424c     0x2bcc libpcsxcore/debug.o
                0x0001424c                add_breakpoint
                0x000142c4                delete_breakpoint
                0x000165c4                next_breakpoint
                0x000165e0                find_breakpoint
                0x0001661c                StartDebugger
                0x0001668c                StopDebugger
                0x000166f4                PauseDebugger
                0x0001670c                ResumeDebugger
                0x00016724                DebugVSync
                0x00016794                MarkMap
                0x000167c4                IsMapMarked
                0x000167ec                DebugCheckBP
                0x00016cf4                ProcessDebug
 .text          0x00016e18     0x11ac libpcsxcore/decode_xa.o
                0x00017ea8                ADPCM_InitDecode
                0x00017eb8                xa_decode_sector
 .text          0x00017fc4     0x3ab0 libpcsxcore/disr3000a.o
                0x0001ba4c                disR3000AF
 .text          0x0001ba74     0x1ad8 libpcsxcore/mdec.o
                0x0001cba0                mdecInit
                0x0001cbf8                mdecWrite0
                0x0001cc08                mdecRead0
                0x0001cc18                mdecWrite1
                0x0001cc40                mdecRead1
                0x0001cc50                mdec0Interrupt
                0x0001ccd0                psxDma1
                0x0001cf28                psxDma0
                0x0001d154                mdec1Interrupt
                0x0001d288                mdecFreeze
 .text          0x0001d54c     0x2110 libpcsxcore/misc.o
                0x0001d628                mmssdd
                0x0001d6f0                GetCdromFile
                0x0001d97c                LoadCdrom
                0x0001e058                LoadCdromFile
                0x0001e4d0                CheckCdrom
                0x0001ea5c                fread_to_ram
                0x0001eabc                Load
                0x0001ed9c                SaveState
                0x0001f004                LoadState
                0x0001f29c                CheckState
                0x0001f34c                SendPcsxInfo
                0x0001f40c                RecvPcsxInfo
                0x0001f558                trim
                0x0001f604                calcCrc
 .text          0x0001f65c     0x20c4 libpcsxcore/plugins.o
                0x0001f65c                GPU__configure
                0x0001f664                GPU__test
                0x0001f66c                GPU__about
                0x0001f670                GPU__makeSnapshot
                0x0001f674                GPU__keypressed
                0x0001f678                GPU__getScreenPic
                0x0001f680                GPU__showScreenPic
                0x0001f688                GPU__clearDynarec
                0x0001f68c                GPU__vBlank
                0x0001f690                CDR__play
                0x0001f698                CDR__stop
                0x0001f6a0                CDR__getDriveLetter
                0x0001f6a8                CDR__configure
                0x0001f6b0                CDR__test
                0x0001f6b8                CDR__about
                0x0001f6bc                CDR__setfilename
                0x0001f6c4                SPU__configure
                0x0001f6cc                SPU__about
                0x0001f6d0                SPU__test
                0x0001f6d8                PAD1__configure
                0x0001f6e0                PAD1__about
                0x0001f6e4                PAD1__test
                0x0001f6ec                PAD1__query
                0x0001f6f4                PAD1__keypressed
                0x0001f6fc                PAD2__configure
                0x0001f704                PAD2__about
                0x0001f708                PAD2__test
                0x0001f710                PAD2__query
                0x0001f718                PAD2__keypressed
                0x0001f720                NET__setInfo
                0x0001f724                NET__keypressed
                0x0001f728                NET__configure
                0x0001f730                NET__test
                0x0001f738                NET__about
                0x0001fbdc                GPU__displayText
                0x0001fbec                CDR__getStatus
                0x0001fc4c                _PADstartPoll
                0x0001fd98                PAD2__startPoll
                0x0001fdc4                PAD1__startPoll
                0x0001fdf0                _PADpoll
                0x0001fe1c                PAD2__poll
                0x0001fe20                PAD1__poll
                0x0001fe24                clearDynarec
                0x0001fe40                ReleasePlugins
                0x0002000c                LoadPlugins
                0x00021618                ReloadCdromPlugin
                0x000216c4                SetIsoFile
                0x000216ec                GetIsoFile
                0x000216f8                UsingIso
                0x00021710                SetCdOpenCaseTime
 .text          0x00021720      0x9ac libpcsxcore/ppf.o
                0x00021884                FreePPFCache
                0x000218d4                CheckPPFCache
                0x00021a18                BuildPPFCache
                0x00021f44                LoadSBI
                0x000220a4                UnloadSBI
 .text          0x000220cc     0x6340 libpcsxcore/psxbios.o
                0x000220cc                psxBios_abs
                0x000220f0                psxBios_labs
                0x00022114                psxBios_atoi
                0x00022258                psxBios_atol
                0x0002225c                psxBios_setjmp
                0x000222e0                psxBios_longjmp
                0x00022364                psxBios_strcat
                0x000223e4                psxBios_strncat
                0x00022484                psxBios_strcmp
                0x00022504                psxBios_strncmp
                0x0002258c                psxBios_strcpy
                0x000225ec                psxBios_strncpy
                0x000226c4                psxBios_strlen
                0x0002272c                psxBios_index
                0x000227b0                psxBios_rindex
                0x00022844                psxBios_strchr
                0x00022848                psxBios_strrchr
                0x0002284c                psxBios_strpbrk
                0x000228f4                psxBios_strspn
                0x000229b4                psxBios_strcspn
                0x00022a70                psxBios_strstr
                0x00022b70                psxBios_toupper
                0x00022b9c                psxBios_tolower
                0x00022bc8                psxBios_bcopy
                0x00022c48                psxBios_bzero
                0x00022cac                psxBios_bcmp
                0x00022d84                psxBios_memcpy
                0x00022e10                psxBios_memset
                0x00022e80                psxBios_memmove
                0x00022f5c                psxBios_memcmp
                0x00022f60                psxBios_memchr
                0x00022ff8                psxBios_rand
                0x00023050                psxBios_srand
                0x00023080                psxBios_Exec
                0x0002312c                psxBios_FlushCache
                0x00023140                psxBios_GPU_dw
                0x000231fc                psxBios_SendGPU
                0x00023264                psxBios_GPU_cw
                0x00023290                psxBios_GPU_cwb
                0x000232f0                psxBios_GPU_GetGPUStatus
                0x0002331c                psxBios__96_init
                0x00023330                psxBios__96_remove
                0x00023344                psxBios_StartRCnt
                0x000233c0                psxBios_StopRCnt
                0x00023434                psxBios_OpenEvent
                0x00023500                psxBios_CloseEvent
                0x00023548                psxBios_WaitEvent
                0x00023590                psxBios_TestEvent
                0x000235e4                psxBios_EnableEvent
                0x0002362c                psxBios_DisableEvent
                0x00023674                psxBios_OpenTh
                0x000236ec                psxBios_CloseTh
                0x00023730                psxBios_ChangeTh
                0x000237e4                psxBios_InitPAD
                0x00023860                psxBios_StopPAD
                0x00023888                psxBios_PAD_dr
                0x000238a4                psxBios_ResetEntryInt
                0x000238c8                psxBios_HookEntryInt
                0x00023908                psxBios_UnDeliverEvent
                0x000239c0                psxBios_lseek
                0x00023a38                psxBios_close
                0x00023a54                psxBios_InitCARD
                0x00023a78                psxBios_StartCARD
                0x00023aa4                psxBios_StopCARD
                0x00023ad0                psxBios__new_card
                0x00023ae4                psxBios_Krom2RawAdd
                0x00023c1c                psxBios_GetC0Table
                0x00023c3c                psxBios_GetB0Table
                0x00023c5c                psxBios__card_chan
                0x00023c80                psxBios_ChangeClearPad
                0x00023c94                psxBios_SysEnqIntRP
                0x00023cc8                psxBios_SysDeqIntRP
                0x00023cf8                psxBios_ChangeClearRCnt
                0x00023d48                psxBios_dummy
                0x00023d5c                psxBios_ReturnFromException
                0x00023dc0                psxBios_sys_a0_4c
                0x00023e18                psxBios_delete
                0x00024024                psxBios_puts
                0x0002407c                psxBios_InitHeap
                0x00024138                psxBios_free
                0x000241d0                psxBios_malloc
                0x000243a8                psxBios_realloc
                0x000243c8                psxBios_calloc
                0x00024418                psxBios_rename
                0x0002472c                psxBios_nextfile
                0x00024a4c                psxBios_open
                0x00024e70                psxBios_putchar
                0x00024ea4                psxBios_PAD_init
                0x00024f1c                psxBios_StartPAD
                0x00024f64                psxBios_SetRCnt
                0x00024fdc                psxBios_ResetRCnt
                0x00025028                psxBios_GetRCnt
                0x00025064                psxBios_SetMem
                0x00025124                psxBios_GPU_SendPackets
                0x000251b0                psxBios_mem2vram
                0x000252bc                psxBios_Load
                0x00025340                psxBios_LoadExec
                0x00025398                psxBios_printf
                0x000258fc                psxBios_getchar
                0x00025928                psxBios_strtok
                0x00025d68                psxBios_qsort
                0x00025dc4                psxBios_firstfile
                0x00026198                psxBios__bu_init
                0x000262d0                psxBios__card_info
                0x000263a4                psxBios__card_load
                0x00026478                psxBios_DeliverEvent
                0x000265ac                psxBios__card_read
                0x000266f8                psxBios__card_write
                0x00026878                psxBios_read
                0x00026bfc                psxBios_write
                0x00027004                psxBiosInit
                0x00027814                psxBiosShutdown
                0x00027818                biosInterrupt
                0x00027eac                psxBiosException
                0x000280b4                psxBiosFreeze
 .text          0x0002840c       0xac libpcsxcore/psxcommon.o
                0x0002840c                EmuInit
                0x00028410                EmuReset
                0x00028424                EmuShutdown
                0x00028440                EmuUpdate
                0x0002847c                __Log
 .text          0x000284b8      0xa90 libpcsxcore/psxcounters.o
                0x000287d4                psxRcntUpdate
                0x00028a9c                psxRcntWcount
                0x00028b00                psxRcntWmode
                0x00028b6c                psxRcntWtarget
                0x00028bfc                psxRcntRcount
                0x00028c6c                psxRcntRmode
                0x00028c8c                psxRcntRtarget
                0x00028ca4                psxRcntInit
                0x00028d80                psxRcntFreeze
 .text          0x00028f48      0x710 libpcsxcore/psxdma.o
                0x00028f48                spuInterrupt
                0x00028fc8                psxDma4
                0x00029164                psxDma2
                0x00029410                gpuInterrupt
                0x000294a4                psxDma6
                0x000295d8                gpuotcInterrupt
 .text          0x00029658      0x158 libpcsxcore/psxhle.o
 .text          0x000297b0      0xe44 libpcsxcore/psxhw.o
                0x000297b0                psxHwReset
                0x00029838                psxHwRead8
                0x000298b0                psxHwRead16
                0x00029a80                psxHwRead32
                0x00029c9c                psxHwWrite8
                0x00029d98                psxHwWrite16
                0x0002a02c                psxHwWrite32
                0x0002a5ec                psxHwFreeze
 .text          0x0002a5f4     0x194c libpcsxcore/psxinterpreter.o
                0x0002a81c                psxMULT
                0x0002a850                psxMULTU
                0x0002a884                psxMTHI
                0x0002a8a4                psxMTLO
                0x0002a8c4                psxBREAK
                0x0002a8c8                psxRFE
                0x0002a8e8                psxNULL
                0x0002a8ec                psxSPECIAL
                0x0002a914                psxREGIMM
                0x0002a944                psxCOP0
                0x0002a974                psxCOP2
                0x0002a9a4                psxBASIC
                0x0002a9d4                psxHLE
                0x0002aa10                psxSYSCALL
                0x0002aa38                psxLWR
                0x0002aa9c                psxLWL
                0x0002ab00                psxSWR
                0x0002ab68                psxSWL
                0x0002abd0                psxSW
                0x0002abfc                psxSH
                0x0002ac28                psxSB
                0x0002ac54                psxADDI
                0x0002ac84                psxADDIU
                0x0002acb4                psxANDI
                0x0002ace8                psxORI
                0x0002ad1c                psxXORI
                0x0002ad50                psxSLTI
                0x0002ad8c                psxSLTIU
                0x0002adc8                psxADD
                0x0002ae04                psxADDU
                0x0002ae40                psxSUB
                0x0002ae7c                psxSUBU
                0x0002aeb8                psxAND
                0x0002aef4                psxOR
                0x0002af30                psxXOR
                0x0002af6c                psxNOR
                0x0002afac                psxSLT
                0x0002aff0                psxSLTU
                0x0002b034                psxDIV
                0x0002b0a0                psxDIVU
                0x0002b100                psxSLL
                0x0002b138                psxSRA
                0x0002b170                psxSRL
                0x0002b1a8                psxSLLV
                0x0002b1e4                psxSRAV
                0x0002b220                psxSRLV
                0x0002b25c                psxLUI
                0x0002b27c                psxMFHI
                0x0002b29c                psxMFLO
                0x0002b2bc                psxMFC0
                0x0002b2e8                psxCFC0
                0x0002b314                psxLW
                0x0002b354                psxLHU
                0x0002b394                psxLH
                0x0002b3d8                psxLBU
                0x0002b418                psxLB
                0x0002b45c                psxTestLoadDelay
                0x0002b874                psxTestSWInts
                0x0002b8b4                MTC0
                0x0002b900                psxCTC0
                0x0002b924                psxMTC0
                0x0002b948                execI
                0x0002b9dc                intExecuteBlock
                0x0002ba04                intExecute
                0x0002ba70                psxDelayTest
                0x0002bcf8                psxJALR
                0x0002bd28                psxJR
                0x0002bd50                psxJAL
                0x0002bd78                psxJ
                0x0002bd98                psxBNE
                0x0002bdd4                psxBEQ
                0x0002be10                psxBLTZAL
                0x0002be48                psxBLTZ
                0x0002be78                psxBLEZ
                0x0002bea8                psxBGTZ
                0x0002bed8                psxBGEZAL
                0x0002bf10                psxBGEZ
 .text          0x0002bf40      0xae0 libpcsxcore/psxmem.o
                0x0002bf40                psxUnmap
                0x0002bf68                psxMap
                0x0002c06c                psxMemInit
                0x0002c2d4                psxMemReset
                0x0002c3d4                psxMemShutdown
                0x0002c424                psxMemRead8
                0x0002c4d4                psxMemRead16
                0x0002c57c                psxMemRead32
                0x0002c62c                psxMemWrite8
                0x0002c6f8                psxMemWrite16
                0x0002c7bc                psxMemWrite32
                0x0002c9c0                psxMemPointer
 .text          0x0002ca20      0x670 libpcsxcore/r3000a.o
                0x0002ca20                psxInit
                0x0002ca9c                psxReset
                0x0002cb4c                psxShutdown
                0x0002cb70                psxException
                0x0002cc94                psxBranchTest
                0x0002cfac                psxJumpTest
                0x0002d04c                psxExecuteBios
 .text          0x0002d090     0x1aa0 libpcsxcore/sio.o
                0x0002d090                sioWriteStat16
                0x0002d094                sioWriteMode16
                0x0002d0a4                sioWriteCtrl16
                0x0002d110                sioWriteBaud16
                0x0002d120                sioReadStat16
                0x0002d130                sioReadMode16
                0x0002d140                sioReadCtrl16
                0x0002d150                sioReadBaud16
                0x0002d160                netError
                0x0002d198                sioWrite8
                0x0002d9fc                sioInterrupt
                0x0002da3c                CreateMcd
                0x0002de8c                LoadMcd
                0x0002e08c                LoadMcds
                0x0002e0b4                ConvertMcd
                0x0002e394                SaveMcd
                0x0002e498                sioRead8
                0x0002e5d4                GetMcdBlockInfo
                0x0002e8f0                sioFreeze
 .text          0x0002eb30      0x408 libpcsxcore/socket.o
                0x0002eb30                StopServer
                0x0002eb54                CloseClient
                0x0002eb88                HasClient
                0x0002eba0                ReadSocket
                0x0002ecb4                RawReadSocket
                0x0002ed80                WriteSocket
                0x0002eda8                GetClient
                0x0002ee48                SetsBlock
                0x0002ee78                SetsNonblock
                0x0002eea8                StartServer
 .text          0x0002ef38       0x24 libpcsxcore/spu.o
                0x0002ef38                SPUirq
 .text          0x0002ef5c     0x682c libpcsxcore/gte.o
                0x0002ef5c                gteMFC2
                0x0002f0c0                gteCFC2
                0x0002f0ec                gteMTC2
                0x0002f260                gteCTC2
                0x0002f2d0                gteLWC2
                0x0002f450                gteSWC2
                0x0002f5a0                gteRTPS
                0x0002fadc                gteRTPT
                0x0003008c                gteMVMVA
                0x000304c8                gteNCLIP
                0x00030568                gteAVSZ3
                0x0003062c                gteAVSZ4
                0x000306f8                gteSQR
                0x0003085c                gteNCCS
                0x00030df0                gteNCCT
                0x000314f8                gteNCDS
                0x00031c44                gteNCDT
                0x00032540                gteOP
                0x000326c8                gteDCPL
                0x000329d8                gteGPF
                0x00032bf0                gteGPL
                0x00032f54                gteDPCS
                0x0003325c                gteDPCT
                0x0003351c                gteNCS
                0x00033a7c                gteNCT
                0x00034138                gteCC
                0x00034510                gteINTPL
                0x0003480c                gteCDP
                0x00034d50                gteSQR_part_noshift
                0x00034d80                gteSQR_part_shift
                0x00034dbc                gteOP_part_noshift
                0x00034e18                gteOP_part_shift
                0x00034e80                gteDCPL_part
                0x00034fb8                gteGPF_part_noshift
                0x00034ff4                gteGPF_part_shift
                0x0003503c                gteGPL_part_noshift
                0x00035144                gteGPL_part_shift
                0x00035258                gteDPCS_part_noshift
                0x00035370                gteDPCS_part_shift
                0x0003547c                gteINTPL_part_noshift
                0x0003557c                gteINTPL_part_shift
                0x00035688                gteMACtoRGB
 .text          0x00035788     0x38f0 libpcsxcore/gte_nf.o
                0x00035788                gteRTPS_nf
                0x00035ae8                gteRTPT_nf
                0x00035e60                gteMVMVA_nf
                0x000361b8                gteNCLIP_nf
                0x00036200                gteAVSZ3_nf
                0x00036248                gteAVSZ4_nf
                0x00036298                gteSQR_nf
                0x00036398                gteNCCS_nf
                0x00036734                gteNCCT_nf
                0x00036b68                gteNCDS_nf
                0x00036fb0                gteNCDT_nf
                0x000374c4                gteOP_nf
                0x000375e8                gteDCPL_nf
                0x00037790                gteGPF_nf
                0x000378a4                gteGPL_nf
                0x00037a8c                gteDPCS_nf
                0x00037c64                gteDPCT_nf
                0x00037df0                gteNCS_nf
                0x00038168                gteNCT_nf
                0x0003857c                gteCC_nf
                0x000387e4                gteINTPL_nf
                0x0003898c                gteCDP_nf
                0x00038ca8                gteGPL_part_noshift_nf
                0x00038cec                gteGPL_part_shift_nf
                0x00038d40                gteDPCS_part_noshift_nf
                0x00038e00                gteDPCS_part_shift_nf
                0x00038eb4                gteINTPL_part_noshift_nf
                0x00038f5c                gteINTPL_part_shift_nf
                0x00039010                gteMACtoRGB_nf
 .text          0x00039078       0xd8 libpcsxcore/gte_divider.o
                0x00039078                DIVIDE
 .text          0x00039150      0x738 libpcsxcore/gte_arm.o
                0x00039150                gteRTPS_nf_arm
                0x0003931c                gteRTPT_nf_arm
                0x000394f4                gteMVMVA_part_arm
                0x000395b8                gteMVMVA_part_nf_arm
                0x00039638                gteMVMVA_part_cv3sh12_arm
                0x000396b0                gteNCLIP_arm
                0x00039718                gteMACtoIR_lm0
                0x00039788                gteMACtoIR_lm1
                0x000397f8                gteMACtoIR_lm0_nf
                0x00039840                gteMACtoIR_lm1_nf
 .text          0x00039888    0x2ec84 libpcsxcore/new_dynarec/new_dynarec.o
                0x00039a04                clear_all_regs
                0x00039a20                get_reg
                0x00039a68                get_reg2
                0x00039ac0                count_free_regs
                0x00039afc                dirty_reg
                0x00039b48                set_const
                0x00039bf0                clear_const
                0x00039c34                is_const
                0x00039c84                get_const
                0x00039ce4                lsn
                0x0003a070                needed_again
                0x0003a248                loop_reg
                0x0003a480                alloc_all
                0x0003a564                set_jump_target
                0x0003a620                set_jump_target_fillslot
                0x0003a6a0                add_literal
                0x0003a6d8                kill_pointer
                0x0003a700                get_pointer
                0x0003a724                get_clean_addr
                0x0003a758                verify_dirty
                0x0003a788                isclean
                0x0003a800                get_bounds
                0x0003a82c                alloc_reg
                0x0003ae10                alloc_reg64
                0x0003b3f0                alloc_reg_temp
                0x0003b7ec                alloc_arm_reg
                0x0003b89c                alloc_cc
                0x0003b8b0                output_byte
                0x0003b8c8                output_modrm
                0x0003b8e8                output_sib
                0x0003b908                output_w32
                0x0003b920                rd_rn_rm
                0x0003b92c                rd_rn_imm_shift
                0x0003b944                genimm
                0x0003b9a0                genimm_checked
                0x0003b9a4                genjmp
                0x0003b9f8                emit_mov
                0x0003ba1c                emit_movs
                0x0003ba40                emit_add
                0x0003ba68                emit_adds
                0x0003ba90                emit_adcs
                0x0003bab8                emit_sbc
                0x0003bae0                emit_sbcs
                0x0003bb08                emit_neg
                0x0003bb30                emit_negs
                0x0003bb58                emit_sub
                0x0003bb80                emit_subs
                0x0003bba8                emit_zeroreg
                0x0003bbcc                emit_loadlp
                0x0003bc24                emit_movw
                0x0003bc58                emit_movt
                0x0003bc8c                emit_movimm
                0x0003bf04                emit_pcreladdr
                0x0003bf28                emit_loadreg
                0x0003c00c                emit_storereg
                0x0003c0a8                emit_test
                0x0003c0cc                emit_testimm
                0x0003c110                emit_testeqimm
                0x0003c150                emit_not
                0x0003c174                emit_mvnmi
                0x0003c198                emit_and
                0x0003c1bc                emit_or
                0x0003c1e4                emit_or_and_set_flags
                0x0003c20c                emit_orrshl_imm
                0x0003c238                emit_orrshr_imm
                0x0003c264                emit_xor
                0x0003c28c                emit_addimm
                0x0003c428                emit_addimm_and_set_flags
                0x0003c530                emit_addimm_no_flags
                0x0003c544                emit_addnop
                0x0003c56c                emit_adcimm
                0x0003c5b8                emit_sbbimm
                0x0003c610                emit_rscimm
                0x0003c65c                emit_addimm64_32
                0x0003c6b0                emit_sbb
                0x0003c6e4                emit_andimm
                0x0003cadc                emit_orimm
                0x0003cba8                emit_xorimm
                0x0003cc74                emit_shlimm
                0x0003cc9c                emit_lsls_imm
                0x0003ccc4                emit_lslpls_imm
                0x0003ccec                emit_shrimm
                0x0003cd20                emit_sarimm
                0x0003cd54                emit_rorimm
                0x0003cd88                emit_shldimm
                0x0003cddc                emit_shrdimm
                0x0003ce34                emit_signextend16
                0x0003ce7c                emit_signextend8
                0x0003cf4c                emit_shl
                0x0003cf80                emit_shr
                0x0003cfb4                emit_sar
                0x0003cfe8                emit_shlcl
                0x0003cfec                emit_shrcl
                0x0003cff0                emit_sarcl
                0x0003cff4                emit_shldcl
                0x0003cff8                emit_shrdcl
                0x0003cffc                emit_orrshl
                0x0003d028                emit_orrshr
                0x0003d054                emit_cmpimm
                0x0003d140                emit_cmovne
                0x0003d144                emit_cmovl
                0x0003d148                emit_cmovs
                0x0003d14c                emit_cmovne_imm
                0x0003d18c                emit_cmovl_imm
                0x0003d1cc                emit_cmovb_imm
                0x0003d20c                emit_cmovs_imm
                0x0003d24c                emit_cmove_reg
                0x0003d26c                emit_cmovne_reg
                0x0003d290                emit_cmovl_reg
                0x0003d2b4                emit_cmovs_reg
                0x0003d2d8                emit_slti32
                0x0003d330                emit_sltiu32
                0x0003d388                emit_slti64_32
                0x0003d414                emit_sltiu64_32
                0x0003d488                emit_cmp
                0x0003d4ac                emit_set_gz32
                0x0003d4d8                emit_set_nz32
                0x0003d514                emit_set_gz64_32
                0x0003d568                emit_set_nz64_32
                0x0003d598                emit_set_if_less32
                0x0003d604                emit_set_if_carry32
                0x0003d670                emit_set_if_less64_32
                0x0003d6dc                emit_set_if_carry64_32
                0x0003d748                emit_call
                0x0003d7f8                emit_jmp
                0x0003d81c                emit_jne
                0x0003d840                emit_jeq
                0x0003d864                emit_js
                0x0003d888                emit_jns
                0x0003d8ac                emit_jl
                0x0003d8d0                emit_jge
                0x0003d8f4                emit_jno
                0x0003d918                emit_jc
                0x0003dab8                emit_jcc
                0x0003dadc                emit_pushimm
                0x0003dae0                emit_pusha
                0x0003dae4                emit_popa
                0x0003dae8                emit_pushreg
                0x0003daec                emit_popreg
                0x0003daf0                emit_callreg
                0x0003db14                emit_jmpreg
                0x0003db38                emit_readword_indexed
                0x0003db74                emit_readword_dualindexedx4
                0x0003dba8                emit_ldrcc_dualindexed
                0x0003dbd0                emit_ldrccb_dualindexed
                0x0003dbf8                emit_ldrccsb_dualindexed
                0x0003dc2c                emit_ldrcch_dualindexed
                0x0003dc60                emit_ldrccsh_dualindexed
                0x0003dc94                emit_readword_indexed_tlb
                0x0003dce0                emit_readdword_indexed_tlb
                0x0003dd50                emit_movsbl_indexed
                0x0003ddd8                emit_movsbl_indexed_tlb
                0x0003de7c                emit_movswl_indexed
                0x0003df04                emit_movzbl_indexed
                0x0003df40                emit_movzbl_dualindexedx4
                0x0003df74                emit_movzbl_indexed_tlb
                0x0003e000                emit_movzwl_indexed
                0x0003e568                emit_readword
                0x0003e598                emit_movsbl
                0x0003e5e4                emit_movswl
                0x0003e630                emit_movzbl
                0x0003e660                emit_movzwl
                0x0003e6ac                emit_movzwl_reg
                0x0003e6b0                emit_xchg
                0x0003e6b4                emit_writeword_indexed
                0x0003e6f4                emit_writeword_dualindexedx4
                0x0003e728                emit_writeword_indexed_tlb
                0x0003e778                emit_writedword_indexed_tlb
                0x0003e860                emit_writehword_indexed
                0x0003e8ec                emit_writebyte_indexed
                0x0003e930                emit_writebyte_dualindexedx4
                0x0003e964                emit_writebyte_indexed_tlb
                0x0003e9f0                emit_strcc_dualindexed
                0x0003ea14                emit_strccb_dualindexed
                0x0003ea38                emit_strcch_dualindexed
                0x0003ea60                emit_writeword
                0x0003ea94                emit_writehword
                0x0003eae0                emit_writebyte
                0x0003eb14                emit_writeword_imm
                0x0003eb18                emit_writebyte_imm
                0x0003eb1c                emit_mul
                0x0003eb20                emit_imul
                0x0003eb24                emit_umull
                0x0003eb5c                emit_smull
                0x0003eb94                emit_div
                0x0003eb98                emit_idiv
                0x0003eb9c                emit_cdq
                0x0003eba0                emit_clz
                0x0003ebc8                emit_subcs
                0x0003ebec                emit_shrcc_imm
                0x0003ec20                emit_shrne_imm
                0x0003ec54                emit_negmi
                0x0003ec7c                emit_negsmi
                0x0003eca4                emit_orreq
                0x0003ecc8                emit_orrne
                0x0003ecec                emit_bic_lsl
                0x0003ed20                emit_biceq_lsl
                0x0003ed54                emit_bicne_lsl
                0x0003ed88                emit_bic_lsr
                0x0003edbc                emit_biceq_lsr
                0x0003edf0                emit_bicne_lsr
                0x0003ee24                emit_teq
                0x0003ee48                emit_rsbimm
                0x0003ee94                emit_mov2imm_compact
                0x0003ef40                emit_cmov2imm_e_ne_compact
                0x0003f034                emit_cmpmem_indexedsr12_imm
                0x0003f038                emit_cmpmem_indexedsr12_reg
                0x0003f070                emit_addsr12
                0x0003f0a4                emit_callne
                0x0003f0c8                emit_prefetch
                0x0003f0fc                emit_prefetchreg
                0x0003f120                emit_ldreq_indexed
                0x0003f144                emit_flds
                0x0003f180                emit_vldr
                0x0003f1a8                emit_fsts
                0x0003f1e8                emit_vstr
                0x0003f210                emit_ftosizs
                0x0003f25c                emit_ftosizd
                0x0003f29c                emit_fsitos
                0x0003f2e8                emit_fsitod
                0x0003f32c                emit_fcvtds
                0x0003f370                emit_fcvtsd
                0x0003f3b0                emit_fsqrts
                0x0003f3fc                emit_fsqrtd
                0x0003f42c                emit_fabss
                0x0003f478                emit_fabsd
                0x0003f4a8                emit_fnegs
                0x0003f4f4                emit_fnegd
                0x0003f524                emit_fadds
                0x0003f580                emit_faddd
                0x0003f5c0                emit_fsubs
                0x0003f61c                emit_fsubd
                0x0003f65c                emit_fmuls
                0x0003f6b8                emit_fmuld
                0x0003f6f8                emit_fdivs
                0x0003f754                emit_fdivd
                0x0003f794                emit_fcmps
                0x0003f7b4                emit_fcmpd
                0x0003f7d4                emit_fmstat
                0x0003f7f4                emit_bicne_imm
                0x0003f83c                emit_biccs_imm
                0x0003f884                emit_bicvc_imm
                0x0003f8d0                emit_bichi_imm
                0x0003f91c                emit_orrvs_imm
                0x0003f968                emit_orrne_imm
                0x0003f9b0                emit_andne_imm
                0x0003fd24                emit_addpl_imm
                0x0003fd70                emit_jno_unlikely
                0x0003fd90                wb_consts
                0x0003febc                literal_pool
                0x0003ffe0                literal_pool_jumpover
                0x0004004c                emit_extjump2
                0x0004007c                emit_extjump
                0x00040088                emit_extjump_ds
                0x00040094                do_readstub
                0x000405dc                get_direct_memhandler
                0x0004066c                inline_readstub
                0x00040e74                do_writestub
                0x000413f4                inline_writestub
                0x00041688                do_unalignedwritestub
                0x000418f4                printregs
                0x00041940                do_invstub
                0x000419f0                do_dirty_stub_ds
                0x00041a64                shift_assemble_arm
                0x00042258                loadlr_assemble_arm
                0x00042ba8                cop2_assemble
                0x00042ea8                cop1_unusable
                0x00042f3c                cop1_assemble
                0x00042f40                fconv_assemble_arm
                0x00042f44                fcomp_assemble
                0x00042f48                float_assemble
                0x00042f4c                multdiv_assemble_arm
                0x000438bc                do_preload_rhash
                0x000438c0                do_preload_rhtbl
                0x000438e0                do_rhash
                0x000438ec                do_miniht_load
                0x00043914                do_miniht_jump
                0x00043968                do_miniht_insert
                0x00043a48                wb_sx
                0x00043a4c                wb_valid
                0x00043b68                do_clear_cache
                0x00043c10                arch_init
                0x00043c14                ll_add
                0x00043c48                ll_add_32
                0x00043c50                check_addr
                0x00043db8                remove_hash
                0x00043e0c                ll_remove_matching_addrs
                0x00043e74                ll_clear
                0x00043ea4                ll_kill_pointers
                0x00043f4c                invalidate_page
                0x000440a4                invalidate_block
                0x000441d8                invalidate_addr
                0x000443d0                invalidate_all_pages
                0x00044474                add_link
                0x000444ac                clean_blocks
                0x00044628                mov_alloc
                0x00044700                shiftimm_alloc
                0x00044b0c                shift_alloc
                0x00044cf8                alu_alloc
                0x0004571c                imm16_alloc
                0x00045bc8                load_alloc
                0x00045e88                store_alloc
                0x00045fc8                c1ls_alloc
                0x000460a4                c2ls_alloc
                0x00046154                multdiv_alloc
                0x000462fc                cop0_alloc
                0x00046450                cop1_alloc
                0x000465bc                fconv_alloc
                0x000465f4                float_alloc
                0x0004662c                c2op_alloc
                0x00046634                fcomp_alloc
                0x00046688                syscall_alloc
                0x000466cc                delayslot_alloc
                0x00046804                add_stub
                0x0004685c                wb_register
                0x000468e8                cop0_assemble
                0x00046efc                mchecksum
                0x00046f38                rchecksum
                0x00046f60                rlist
                0x00046fac                enabletrace
                0x00046fc0                memdebug
                0x000470f4                tlb_debug
                0x00047110                alu_assemble
                0x00048700                imm16_assemble
                0x00049190                shiftimm_assemble
                0x00049b7c                load_assemble
                0x0004a738                storelr_assemble
                0x0004b3b4                c1ls_assemble
                0x0004b3b8                c2ls_assemble
                0x0004b8a8                mov_assemble
                0x0004ba64                syscall_assemble
                0x0004bae0                hlecall_assemble
                0x0004bb88                intcall_assemble
                0x0004bc04                internal_branch
                0x0004bd1c                wb_invalidate
                0x0004c038                load_regs
                0x0004c1b8                address_generation
                0x0004c93c                get_final_value
                0x0004d060                load_consts
                0x0004d4d8                load_all_consts
                0x0004d6d4                wb_dirtys
                0x0004d7b8                store_assemble
                0x0004df30                ds_assemble
                0x0004e0f4                do_cop1stub
                0x0004e238                wb_needed_dirtys
                0x0004e41c                load_all_regs
                0x0004e4ac                load_needed_regs
                0x0004e570                load_regs_entry
                0x0004e794                do_dirty_stub
                0x0004e854                store_regs_bt
                0x0004ebf8                load_regs_bt
                0x0004ee84                match_bt
                0x0004f244                ds_assemble_entry
                0x0004f5fc                do_cc
                0x0004f8e8                do_ccstub
                0x00050840                add_to_linker
                0x00050880                ujump_assemble
                0x00050c20                rjump_assemble
                0x00051204                cjump_assemble
                0x00052e00                sjump_assemble
                0x0005442c                fjump_assemble
                0x000553f8                unneeded_registers
                0x000574c0                clean_registers
                0x00058ac8                new_dynarec_clear_full
                0x00058c0c                new_dynarec_init
                0x00058cb4                new_dynarec_cleanup
                0x00058d1c                new_recompile_block
                0x0006828c                get_addr
                0x000684cc                get_addr_32
                0x000684d0                get_addr_ht
 .text          0x0006850c      0x92c libpcsxcore/new_dynarec/linkage_arm.o
                0x0006850c                dyna_linker
                0x0006864c                exec_pagefault
                0x00068694                dyna_linker_ds
                0x000687e4                jump_vaddr_r0
                0x000687ec                jump_vaddr_r1
                0x000687f8                jump_vaddr_r2
                0x00068804                jump_vaddr_r3
                0x00068810                jump_vaddr_r4
                0x0006881c                jump_vaddr_r5
                0x00068828                jump_vaddr_r6
                0x00068834                jump_vaddr_r8
                0x00068840                jump_vaddr_r9
                0x0006884c                jump_vaddr_r10
                0x00068858                jump_vaddr_r12
                0x00068864                jump_vaddr_r7
                0x0006886c                jump_vaddr
                0x000688a0                verify_code_ds
                0x000688a4                verify_code_vm
                0x000688a4                verify_code
                0x00068908                cc_interrupt
                0x00068998                do_interrupt
                0x000689a8                fp_exception
                0x000689d4                fp_exception_ds
                0x000689dc                jump_syscall
                0x00068a04                jump_syscall_hle
                0x00068a3c                jump_hlecall
                0x00068a54                jump_intcall
                0x00068a6c                new_dyna_leave
                0x00068a80                invalidate_addr_r0
                0x00068a88                invalidate_addr_r1
                0x00068a94                invalidate_addr_r2
                0x00068aa0                invalidate_addr_r3
                0x00068aac                invalidate_addr_r4
                0x00068ab8                invalidate_addr_r5
                0x00068ac4                invalidate_addr_r6
                0x00068ad0                invalidate_addr_r7
                0x00068adc                invalidate_addr_r8
                0x00068ae8                invalidate_addr_r9
                0x00068af4                invalidate_addr_r10
                0x00068b00                invalidate_addr_r12
                0x00068b20                new_dyna_start
                0x00068b44                jump_handler_read8
                0x00068b70                jump_handler_read16
                0x00068ba0                jump_handler_read32
                0x00068bc8                jump_handler_write8
                0x00068c18                jump_handler_write16
                0x00068c6c                jump_handler_write32
                0x00068cb8                jump_handler_write_h
                0x00068ce8                jump_handle_swl
                0x00068d50                jump_handle_swr
                0x00068da0                rcnt0_read_count_m0
                0x00068db4                rcnt1_read_count_m0
                0x00068dc8                rcnt2_read_count_m0
                0x00068ddc                rcnt0_read_count_m1
                0x00068df8                rcnt1_read_count_m1
                0x00068e14                rcnt2_read_count_m1
 .text          0x00068e38     0x1538 libpcsxcore/new_dynarec/pcsxmem.o
                0x00069788                read_mem_dummy
                0x00069790                new_dyna_pcsx_mem_load_state
                0x000697b8                pcsxmem_is_handler_dynamic
                0x00069808                new_dyna_pcsx_mem_init
                0x0006a2c0                new_dyna_pcsx_mem_reset
                0x0006a33c                new_dyna_pcsx_mem_shutdown
 .text          0x0006a370      0x43c libpcsxcore/new_dynarec/emu_if.o
                0x0006a580                gen_interupt
                0x0006a68c                pcsx_mtc0
                0x0006a6c4                pcsx_mtc0_ds
                0x0006a6c8                new_dyna_save
                0x0006a6e0                new_dyna_after_save
                0x0006a6f8                new_dyna_restore
                0x0006a7a4                do_insn_trace
                0x0006a7a8                do_insn_cmp
 .text          0x0006a7ac      0x14c plugins/dfsound/dma.o
                0x0006a7ac                SPUreadDMA
                0x0006a7e0                SPUreadDMAMem
                0x0006a838                SPUwriteDMA
                0x0006a86c                SPUwriteDMAMem
 .text          0x0006a8f8      0x928 plugins/dfsound/freeze.o
                0x0006a8f8                LoadStateV5
                0x0006ac04                LoadStateUnknown
                0x0006acc4                SPUfreeze
 .text          0x0006b220      0xdf8 plugins/dfsound/registers.o
                0x0006b348                SPUwriteRegister
                0x0006be94                SPUreadRegister
 .text          0x0006c018     0x3a34 plugins/dfsound/spu.o
                0x0006c360                InitADSR
                0x0006c428                SPUasync
                0x0006e84c                SPUupdate
                0x0006e854                SPUplayADPCMchannel
                0x0006f590                SPUplayCDDAchannel
                0x0006f664                ClearWorkingState
                0x0006f6ac                SetupStreams
                0x0006f79c                RemoveStreams
                0x0006f7e8                SPUinit
                0x0006f878                SPUopen
                0x0006f8a4                SPUclose
                0x0006f8e0                SPUshutdown
                0x0006f924                SPUtest
                0x0006f92c                SPUconfigure
                0x0006f934                SPUabout
                0x0006f938                SPUregisterCallback
                0x0006f948                SPUregisterCDDAVolume
                0x0006f958                spu_get_debug_info
 .text          0x0006fa4c       0xdc plugins/dfsound/out.o
                0x0006fa4c                SetupSound
 .text          0x0006fb28       0x58 plugins/dfsound/nullsnd.o
                0x0006fb40                out_register_none
 .text          0x0006fb80       0xc4 plugins/dfsound/arm_utils.o
                0x0006fb80                mix_chan
                0x0006fbdc                mix_chan_rvb
 .text          0x0006fc44      0x338 plugins/dfsound/sdl.o
                0x0006ff3c                out_register_sdl
 .text          0x0006ff7c     0x19b4 plugins/gpulib/gpu.o
                0x00070e98                GPUinit
                0x00070f14                GPUshutdown
                0x00070f68                GPUwriteStatus
                0x00071198                GPUwriteDataMem
                0x000711e0                GPUwriteData
                0x0007120c                GPUdmaChain
                0x000713f8                GPUreadDataMem
                0x00071460                GPUreadData
                0x000714cc                GPUreadStatus
                0x00071504                GPUfreeze
                0x0007165c                GPUupdateLace
                0x00071760                GPUvBlank
                0x00071830                GPUrearmedCallbacks
 .text          0x00071930      0x3b4 plugins/gpulib/vout_pl.o
                0x00071a64                vout_init
                0x00071a6c                vout_finish
                0x00071a74                vout_update
                0x00071bcc                vout_blank
                0x00071c58                GPUopen
                0x00071cb4                GPUclose
                0x00071cd4                vout_set_config
 *fill*         0x00071ce4        0x4 00000000
 .text          0x00071ce8    0x29478 plugins/gpu_unai/gpulib_if.o
                0x000936d4                _Z5btestii
                0x0009370c                _Z9gpuDrawLFPFvPttE
                0x000939b4                _Z9gpuDrawLGPFvPttE
                0x00093e94                _Z9gpuDrawF3PFvPtjE
                0x00094670                _Z10gpuDrawFT3PFvPtjE
                0x000951b0                _Z9gpuDrawG3PFvPtjE
                0x00095e3c                _Z10gpuDrawGT3PFvPtjE
                0x00096eb0                _Z8gpuDrawSPFvPtjjjE
                0x00097050                _Z10gpuDrawS16v
                0x00097150                _Z8gpuDrawTPFvPtjtE
                0x000972ac                _Z21gpuSendPacketFunctioni
                0x00098510                renderer_init
                0x00098574                renderer_finish
                0x00098578                renderer_notify_res_change
                0x0009857c                do_cmd_list
                0x00099b6c                renderer_sync_ecmds
                0x0009b0e0                renderer_update_caches
                0x0009b0e4                renderer_flush_queues
                0x0009b0e8                renderer_set_interlace
                0x0009b0ec                renderer_set_config
 .text          0x0009b160      0x120 plugins/gpu_unai/gpu_arm.o
                0x0009b160                draw_spr16_full
 .text          0x0009b280      0xc60 plugins/cdrcimg/cdrcimg.o
                0x0009bac0                uncompress2
                0x0009be80                cdrcimg_set_fname
                0x0009be90                cdrcimg_get_sym
 .text          0x0009bee0      0x140 plugins/dfinput/main.o
                0x0009bee0                dfinput_activate
 .text          0x0009c020      0x490 plugins/dfinput/pad.o
                0x0009c020                PADpoll_pad
                0x0009c3e0                PADstartPoll_pad
                0x0009c438                pad_init
 .text          0x0009c4b0      0x1c8 plugins/dfinput/guncon.o
                0x0009c4b0                PADpoll_guncon
                0x0009c514                PADstartPoll_guncon
                0x0009c650                guncon_init
 .text          0x0009c678      0x538 frontend/cspace.o
                0x0009c678                bgr888_to_rgb565
                0x0009c6e4                rgb888_to_rgb565
                0x0009c6e8                bgr888_to_rgb888
                0x0009c6ec                bgr_to_uyvy_init
                0x0009c80c                rgb565_to_uyvy
                0x0009c940                bgr555_to_uyvy
                0x0009ca7c                bgr888_to_uyvy
 .text          0x0009cbb0       0xfc frontend/cspace_arm.o
                0x0009cbb0                bgr555_to_rgb565
 .text          0x0009ccac      0x650 frontend/libpicofe/in_sdl.o
                0x0009d2d0                in_sdl_init
 .text          0x0009d2fc      0x96c frontend/libpicofe/plat_sdl.o
                0x0009d2fc                plat_sdl_finish
                0x0009d39c                plat_sdl_overlay_clear
                0x0009d3ec                plat_sdl_change_video_mode
                0x0009d73c                plat_sdl_init
                0x0009db00                plat_sdl_event_handler
 .text          0x0009dc68       0x10 frontend/libpicofe/plat_dummy.o
                0x0009dc68                plat_target_init
                0x0009dc70                plat_target_finish
                0x0009dc74                plat_target_setup_input
 .text          0x0009dc78      0xc44 frontend/libpicofe/linux/in_evdev.o
                0x0009e8ac                in_evdev_init
 .text          0x0009e8bc      0x720 frontend/plat_sdl.o
                0x0009ea70                plat_init
                0x0009eb78                plat_finish
                0x0009eba8                plat_gvideo_open
                0x0009ebac                plat_gvideo_set_mode
                0x0009ec68                plat_gvideo_flip
                0x0009ed08                plat_gvideo_close
                0x0009ed0c                plat_video_menu_enter
                0x0009ee50                plat_video_menu_begin
                0x0009eebc                plat_video_menu_end
                0x0009efb8                plat_video_menu_leave
                0x0009efcc                plat_prepare_screenshot
                0x0009efd4                plat_trigger_vibrate
                0x0009efd8                plat_minimize
 .text          0x0009efdc      0x55c frontend/libpicofe/gl.o
                0x0009f01c                gl_init
                0x0009f350                gl_flip
                0x0009f4c8                gl_finish
 .text          0x0009f538      0x308 frontend/libpicofe/gl_platform.o
                0x0009f538                gl_platform_init
                0x0009f800                gl_platform_finish
 .text          0x0009f840     0x14d0 frontend/plugin_lib.o
                0x000a0444                pl_prepare_screenshot
                0x000a0490                dispmode_doubleres
                0x000a0514                dispmode_scale2x
                0x000a058c                dispmode_eagle2x
                0x000a0604                pl_switch_dispmode
                0x000a064c                pl_update_gun
                0x000a06a0                pl_frame_limit
                0x000a0b9c                pl_timing_prepare
                0x000a0c2c                pl_start_watchdog
                0x000a0c88                pl_init
 .text          0x000a0d10      0x4d0 frontend/libpicofe/linux/plat.o
                0x000a0d10                plat_is_dir
                0x000a0d34                plat_get_root_dir
                0x000a0dc8                plat_get_ticks_ms
                0x000a0e04                plat_get_ticks_us
                0x000a0e34                plat_sleep_ms
                0x000a0e40                plat_wait_event
                0x000a0fbc                plat_mmap
                0x000a10d4                plat_mremap
                0x000a1118                plat_munmap
                0x000a11a4                lprintf
 .text          0x000a11e0      0x7cc frontend/libpicofe/readpng.o
                0x000a11e0                readpng
                0x000a1738                writepng
 .text          0x000a19ac      0x28c frontend/libpicofe/fonts.o
                0x000a19ac                basic_text_out16_nf
                0x000a1acc                basic_text_out_uyvy_nf
                0x000a1be0                basic_text_out16
 .text          0x000a1c38     0x6abc frontend/menu.o
                0x000a41f4                emu_make_path
                0x000a425c                text_out16
                0x000a6de4                menu_init_base
                0x000a7074                menu_init
                0x000a7714                menu_notify_mode_change
                0x000a772c                menu_prepare_emu
                0x000a783c                menu_loop
                0x000a7b90                menu_update_msg
                0x000a86c0                menu_finish
 .text          0x000a86f4     0x1808 frontend/libpicofe/input.o
                0x000a87cc                in_register
                0x000a8a3c                in_combos_find
                0x000a8acc                in_combos_do
                0x000a8bd4                in_update
                0x000a8c5c                in_update_analog
                0x000a8cb0                in_update_keycode
                0x000a8fc8                in_menu_wait_any
                0x000a9034                in_menu_wait
                0x000a90e0                in_get_dev_binds
                0x000a90fc                in_get_dev_def_binds
                0x000a9120                in_get_config
                0x000a91d8                in_set_config
                0x000a932c                in_get_dev_name
                0x000a938c                in_name_to_id
                0x000a93fc                in_get_key_name
                0x000a952c                in_get_key_code
                0x000a95a8                in_bind_key
                0x000a96a8                in_unbind_all
                0x000a9750                in_config_parse_dev
                0x000a98f8                in_config_bind_key
                0x000a9aac                in_clean_binds
                0x000a9b34                in_debug_dump
                0x000a9bd8                in_probe
                0x000a9da0                in_register_driver
                0x000a9ecc                in_init
 .text          0x000a9efc      0x404 frontend/pl_gun_ts.o
                0x000a9efc                pl_gun_ts_update_raw
                0x000aa040                pl_gun_ts_update
                0x000aa094                pl_set_gun_rect
                0x000aa0d0                pl_gun_ts_get_fd
                0x000aa104                pl_gun_ts_init
 .text          0x000aa300     0x18b8 frontend/main.o
                0x000aa5f0                set_cd_image
                0x000aa69c                emu_set_default_config
                0x000aa794                emu_core_preinit
                0x000aa814                emu_core_ask_exit
                0x000aa834                SysRunGui
                0x000aa840                SysReset
                0x000aa8a0                SysClose
                0x000aa8fc                SysUpdate
                0x000aa900                get_state_filename
                0x000aa910                emu_check_state
                0x000aa940                emu_load_state
                0x000aa980                SysPrintf
                0x000aa9c4                emu_save_state
                0x000aaa30                emu_core_init
                0x000aafb4                emu_on_new_cd
                0x000ab030                SysMessage
                0x000ab5a4                do_emu_action
                0x000ab9b8                OpenPlugins
                0x000ab9f0                ClosePlugins
                0x000abad4                SysLoadLibrary
                0x000abb84                SysLoadSym
                0x000abba0                SysLibError
                0x000abba4                SysCloseLibrary
 .text          0x000abbb8      0x15c frontend/plugin.o
                0x000abc58                plugin_link
                0x000abce0                plugin_call_rearmed_cbs
 .text          0x000abd14       0x64 /usr/lib/arm-linux-gnueabihf/libc_nonshared.a(elf-init.oS)
                0x000abd14                __libc_csu_init
                0x000abd74                __libc_csu_fini
 .text          0x000abd78        0x0 /usr/lib/gcc/arm-linux-gnueabihf/4.6/crtend.o
 .text          0x000abd78        0x0 /usr/lib/gcc/arm-linux-gnueabihf/4.6/../../../arm-linux-gnueabihf/crtn.o
 *(.gnu.warning)
 *(.glue_7t)
 .glue_7t       0x00000000        0x0 linker stubs
 *(.glue_7)
 .glue_7        0x00000000        0x0 linker stubs
 *(.vfp11_veneer)
 .vfp11_veneer  0x00000000        0x0 linker stubs
 *(.v4_bx)
 .v4_bx         0x00000000        0x0 linker stubs

.fini           0x000abd78        0x8
 *(.fini)
 .fini          0x000abd78        0x4 /usr/lib/gcc/arm-linux-gnueabihf/4.6/../../../arm-linux-gnueabihf/crti.o
                0x000abd78                _fini
 .fini          0x000abd7c        0x4 /usr/lib/gcc/arm-linux-gnueabihf/4.6/../../../arm-linux-gnueabihf/crtn.o
                0x000abd80                PROVIDE (__etext, .)
                0x000abd80                PROVIDE (_etext, .)
                0x000abd80                PROVIDE (etext, .)

.rodata         0x000abd80    0x298cc
 *(.rodata .rodata.* .gnu.linkonce.r.*)
 .rodata.cst4   0x000abd80        0x4 /usr/lib/gcc/arm-linux-gnueabihf/4.6/../../../arm-linux-gnueabihf/crt1.o
                0x000abd80                _IO_stdin_used
 .rodata        0x000abd84       0x10 libpcsxcore/cdriso.o
 .rodata.str1.4
                0x000abd94      0x4e9 libpcsxcore/cdriso.o
                                0x50c (size before relaxing)
 *fill*         0x000ac27d        0x3 00
 .rodata        0x000ac280       0x44 libpcsxcore/cdrom.o
 .rodata.str1.4
                0x000ac2c4      0x16b libpcsxcore/cdrom.o
                                0x16c (size before relaxing)
 *fill*         0x000ac42f        0x1 00
 .rodata.str1.4
                0x000ac430       0x5f libpcsxcore/cheat.o
                                 0x68 (size before relaxing)
 *fill*         0x000ac48f        0x1 00
 .rodata.str1.4
                0x000ac490      0xce7 libpcsxcore/debug.o
                                0xcf0 (size before relaxing)
 *fill*         0x000ad177        0x1 00
 .rodata        0x000ad178       0x30 libpcsxcore/decode_xa.o
 .rodata        0x000ad1a8       0x80 libpcsxcore/disr3000a.o
 .rodata.str1.4
                0x000ad228      0x443 libpcsxcore/disr3000a.o
                                0x450 (size before relaxing)
 *fill*         0x000ad66b        0x1 00
 .rodata        0x000ad66c      0x200 libpcsxcore/mdec.o
 .rodata        0x000ad86c      0x268 libpcsxcore/misc.o
 .rodata.str1.4
                0x000adad4      0x16e libpcsxcore/misc.o
                                0x178 (size before relaxing)
 *fill*         0x000adc42        0x2 00
 .rodata.str1.4
                0x000adc44      0x6a9 libpcsxcore/plugins.o
                                0x6b0 (size before relaxing)
 *fill*         0x000ae2ed        0x3 00
 .rodata.str1.4
                0x000ae2f0       0x7a libpcsxcore/ppf.o
                                 0x80 (size before relaxing)
 *fill*         0x000ae36a        0x2 00
 .rodata        0x000ae36c     0xdaac libpcsxcore/psxbios.o
                0x000ae59c                font_8140
                0x000af828                font_889f
 .rodata.str1.4
                0x000bbe18      0xe8c libpcsxcore/psxbios.o
                                0xea8 (size before relaxing)
 .rodata        0x000bcca4       0x18 libpcsxcore/psxcounters.o
 .rodata.str1.4
                0x000bccbc       0x4d libpcsxcore/psxhle.o
                                 0x50 (size before relaxing)
 *fill*         0x000bcd09        0x3 00
 .rodata.str1.4
                0x000bcd0c       0x92 libpcsxcore/psxmem.o
                                 0xa0 (size before relaxing)
 *fill*         0x000bcd9e        0x2 00
 .rodata.str1.4
                0x000bcda0       0x37 libpcsxcore/r3000a.o
                                 0x3c (size before relaxing)
 *fill*         0x000bcdd7        0x1 00
 .rodata.str1.4
                0x000bcdd8       0xa4 libpcsxcore/sio.o
                                 0xac (size before relaxing)
 .rodata.str1.4
                0x000bce7c       0x26 libpcsxcore/socket.o
                                 0x30 (size before relaxing)
 *fill*         0x000bcea2        0x2 00
 .rodata        0x000bcea4    0x10000 libpcsxcore/gte_divider.o
 .rodata        0x000ccea4       0x80 libpcsxcore/new_dynarec/new_dynarec.o
                0x000ccea4                invalidate_addr_reg
                0x000ccee4                jump_vaddr_reg
 .rodata.str1.4
                0x000ccf24      0x786 libpcsxcore/new_dynarec/new_dynarec.o
                                0x920 (size before relaxing)
 *fill*         0x000cd6aa        0x2 00
 .rodata.str1.4
                0x000cd6ac       0x56 libpcsxcore/new_dynarec/pcsxmem.o
                                 0x58 (size before relaxing)
 *fill*         0x000cd702        0x6 00
 .rodata        0x000cd708      0x478 libpcsxcore/new_dynarec/emu_if.o
                0x000cd740                gte_reg_writes
                0x000cd940                gte_reg_reads
                0x000cdb40                gte_cycletab
 .rodata.str1.4
                0x000cdb80       0x48 libpcsxcore/new_dynarec/emu_if.o
                                 0xd8 (size before relaxing)
 .rodata.str1.4
                0x000cdbc8        0x6 plugins/dfsound/freeze.o
                                  0x8 (size before relaxing)
 *fill*         0x000cdbce        0x2 00
 .rodata        0x000cdbd0      0x840 plugins/dfsound/spu.o
 .rodata.str1.4
                0x000ce410       0x3a plugins/dfsound/out.o
                                 0x3c (size before relaxing)
 .rodata.str1.4
                0x00000000        0x8 plugins/dfsound/nullsnd.o
 *fill*         0x000ce44a        0x2 00
 .rodata.str1.4
                0x000ce44c        0x4 plugins/dfsound/sdl.o
 .rodata        0x000ce450      0x118 plugins/gpulib/gpu.o
                0x000ce450                cmd_lengths
 .rodata.str1.4
                0x000ce568       0x24 plugins/gpulib/gpu.o
 .rodata        0x000ce58c     0x15c0 plugins/gpu_unai/gpulib_if.o
 .rodata        0x000cfb4c       0x60 plugins/cdrcimg/cdrcimg.o
 .rodata.str1.4
                0x000cfbac      0x41e plugins/cdrcimg/cdrcimg.o
                                0x4c4 (size before relaxing)
 *fill*         0x000cffca        0x2 00
 .rodata        0x000cffcc      0x590 frontend/libpicofe/in_sdl.o
 .rodata.str1.4
                0x000d055c      0x218 frontend/libpicofe/in_sdl.o
                                0x2d8 (size before relaxing)
 .rodata.str1.4
                0x000d0774      0x1df frontend/libpicofe/plat_sdl.o
                                0x1e0 (size before relaxing)
 *fill*         0x000d0953        0x1 00
 .rodata        0x000d0954      0xc9c frontend/libpicofe/linux/in_evdev.o
 .rodata.str1.4
                0x000d15f0      0x54f frontend/libpicofe/linux/in_evdev.o
                                0x5fc (size before relaxing)
 *fill*         0x000d1b3f        0x1 00
 .rodata        0x000d1b40       0x68 frontend/plat_sdl.o
 .rodata.str1.4
                0x000d1ba8       0x1d frontend/plat_sdl.o
                                 0x28 (size before relaxing)
 *fill*         0x000d1bc5        0x3 00
 .rodata.str1.4
                0x000d1bc8      0x13b frontend/libpicofe/gl.o
                                0x14c (size before relaxing)
 *fill*         0x000d1d03        0x1 00
 .rodata.str1.4
                0x000d1d04       0x78 frontend/libpicofe/gl_platform.o
 .rodata        0x000d1d7c       0x30 frontend/plugin_lib.o
 .rodata.str1.4
                0x000d1dac      0x11e frontend/plugin_lib.o
                                0x120 (size before relaxing)
 *fill*         0x000d1eca        0x2 00
 .rodata.str1.4
                0x000d1ecc       0xd8 frontend/libpicofe/linux/plat.o
 .rodata.str1.4
                0x000d1fa4      0x32f frontend/libpicofe/readpng.o
                                0x338 (size before relaxing)
 *fill*         0x000d22d3        0x1 00
 .rodata        0x000d22d4      0xe70 frontend/menu.o
 .rodata.str1.4
                0x000d3144     0x18c3 frontend/menu.o
                               0x1974 (size before relaxing)
 *fill*         0x000d4a07        0x1 00
 .rodata.str1.4
                0x000d4a08      0x1ab frontend/libpicofe/input.o
                                0x1ac (size before relaxing)
 *fill*         0x000d4bb3        0x1 00
 .rodata.str1.4
                0x000d4bb4       0xfc frontend/pl_gun_ts.o
                                0x120 (size before relaxing)
 .rodata        0x000d4cb0       0x28 frontend/main.o
 .rodata.str1.4
                0x000d4cd8      0x68f frontend/main.o
                                0x750 (size before relaxing)
 *fill*         0x000d5367        0x1 00
 .rodata        0x000d5368      0x2d0 frontend/plugin.o
 .rodata.str1.4
                0x000d5638       0x14 frontend/plugin.o
                                0x320 (size before relaxing)

.rodata1
 *(.rodata1)

.ARM.extab      0x000d564c        0x0
 *(.ARM.extab* .gnu.linkonce.armextab.*)
 .ARM.extab     0x000d564c        0x0 /usr/lib/gcc/arm-linux-gnueabihf/4.6/../../../arm-linux-gnueabihf/crt1.o
 .ARM.extab     0x000d564c        0x0 plugins/gpu_unai/gpulib_if.o
                0x000d564c                PROVIDE (__exidx_start, .)

.ARM.exidx      0x000d564c       0x78
 *(.ARM.exidx* .gnu.linkonce.armexidx.*)
 .ARM.exidx     0x000d564c        0x8 /usr/lib/gcc/arm-linux-gnueabihf/4.6/../../../arm-linux-gnueabihf/crt1.o
 .ARM.exidx     0x000d5654       0x70 plugins/gpu_unai/gpulib_if.o
                               0x1100 (size before relaxing)
                0x000d56c4                PROVIDE (__exidx_end, .)

.eh_frame_hdr   0x000d56c4        0x0
 *(.eh_frame_hdr)
 .eh_frame_hdr  0x00000000        0x0 /usr/lib/gcc/arm-linux-gnueabihf/4.6/../../../arm-linux-gnueabihf/crtn.o

.eh_frame       0x000d56c4        0x4
 *(.eh_frame)
 .eh_frame      0x000d56c4        0x4 /usr/lib/gcc/arm-linux-gnueabihf/4.6/crtend.o

.gcc_except_table
 *(.gcc_except_table .gcc_except_table.*)

.exception_ranges
 *(.exception_ranges .exception_ranges*)
                0x000d56c8                . = (ALIGN (0x8000) - ((0x8000 - .) & 0x7fff))
                0x000dd6c8                . = DATA_SEGMENT_ALIGN (0x8000, 0x1000)

.eh_frame
 *(.eh_frame)

.gcc_except_table
 *(.gcc_except_table .gcc_except_table.*)

.exception_ranges
 *(.exception_ranges .exception_ranges*)

.tdata
 *(.tdata .tdata.* .gnu.linkonce.td.*)

.tbss
 *(.tbss .tbss.* .gnu.linkonce.tb.*)
 *(.tcommon)

.preinit_array  0x000dd6c8        0x0
                0x000dd6c8                PROVIDE (__preinit_array_start, .)
 *(.preinit_array)
                0x000dd6c8                PROVIDE (__preinit_array_end, .)

.init_array     0x000dd6c8        0x4
                0x000dd6c8                PROVIDE (__init_array_start, .)
 *(SORT(.init_array.*) SORT(.ctors.*))
 *(.init_array)
 .init_array    0x000dd6c8        0x4 /usr/lib/gcc/arm-linux-gnueabihf/4.6/crtbegin.o
 *(EXCLUDE_FILE(*crtend?.o *crtend.o *crtbegin?.o *crtbegin.o) .ctors)
                0x000dd6cc                PROVIDE (__init_array_end, .)

.fini_array     0x000dd6cc        0x4
                0x000dd6cc                PROVIDE (__fini_array_start, .)
 *(SORT(.fini_array.*) SORT(.dtors.*))
 *(.fini_array)
 .fini_array    0x000dd6cc        0x4 /usr/lib/gcc/arm-linux-gnueabihf/4.6/crtbegin.o
 *(EXCLUDE_FILE(*crtend?.o *crtend.o *crtbegin?.o *crtbegin.o) .dtors)
                0x000dd6d0                PROVIDE (__fini_array_end, .)

.ctors
 *crtbegin.o(.ctors)
 *crtbegin?.o(.ctors)
 *(EXCLUDE_FILE(*crtend?.o *crtend.o) .ctors)
 *(SORT(.ctors.*))
 *(.ctors)

.dtors
 *crtbegin.o(.dtors)
 *crtbegin?.o(.dtors)
 *(EXCLUDE_FILE(*crtend?.o *crtend.o) .dtors)
 *(SORT(.dtors.*))
 *(.dtors)

.jcr            0x000dd6d0        0x4
 *(.jcr)
 .jcr           0x000dd6d0        0x0 /usr/lib/gcc/arm-linux-gnueabihf/4.6/crtbegin.o
 .jcr           0x000dd6d0        0x4 /usr/lib/gcc/arm-linux-gnueabihf/4.6/crtend.o

.data.rel.ro
 *(.data.rel.ro.local* .gnu.linkonce.d.rel.ro.local.*)
 *(.data.rel.ro* .gnu.linkonce.d.rel.ro.*)

.dynamic        0x000dd6d4      0x148
 *(.dynamic)
 .dynamic       0x000dd6d4      0x148 /usr/lib/gcc/arm-linux-gnueabihf/4.6/../../../arm-linux-gnueabihf/crt1.o
                0x000dd6d4                _DYNAMIC
                0x000dd81c                . = DATA_SEGMENT_RELRO_END (., 0x0)

.got            0x000dd81c      0x320
 *(.got.plt)
 .got.plt       0x000dd81c      0x31c /usr/lib/gcc/arm-linux-gnueabihf/4.6/../../../arm-linux-gnueabihf/crt1.o
                0x000dd81c                _GLOBAL_OFFSET_TABLE_
 *(.igot.plt)
 .igot.plt      0x00000000        0x0 /usr/lib/gcc/arm-linux-gnueabihf/4.6/../../../arm-linux-gnueabihf/crt1.o
 *(.got)
 .got           0x000ddb38        0x4 /usr/lib/gcc/arm-linux-gnueabihf/4.6/../../../arm-linux-gnueabihf/crt1.o
 *(.igot)

.data           0x000ddb3c     0x4898
                0x000ddb3c                PROVIDE (__data_start, .)
 *(.data .data.* .gnu.linkonce.d.*)
 .data          0x000ddb3c        0x4 /usr/lib/gcc/arm-linux-gnueabihf/4.6/../../../arm-linux-gnueabihf/crt1.o
                0x000ddb3c                data_start
                0x000ddb3c                __data_start
 .data          0x000ddb40        0x0 /usr/lib/gcc/arm-linux-gnueabihf/4.6/../../../arm-linux-gnueabihf/crti.o
 .data          0x000ddb40        0x4 /usr/lib/gcc/arm-linux-gnueabihf/4.6/crtbegin.o
                0x000ddb40                __dso_handle
 .data          0x000ddb44        0x0 libpcsxcore/cdriso.o
 .data          0x000ddb44      0x414 libpcsxcore/cdrom.o
                0x000ddb44                Test20
                0x000ddb48                Test22
                0x000ddb50                Test23
                0x000ddb58                CmdName
 .data          0x000ddf58        0x0 libpcsxcore/cheat.o
 .data          0x000ddf58       0x1c libpcsxcore/debug.o
                0x000ddf58                breakpoint_type_names
 .data          0x000ddf74        0x0 libpcsxcore/decode_xa.o
 .data          0x000ddf74      0x500 libpcsxcore/disr3000a.o
                0x000ddf74                disR3000A_COP2
                0x000de074                disR3000A_COP0
                0x000de0f4                disR3000A_BCOND
                0x000de174                disR3000A_SPECIAL
                0x000de274                disR3000A_BASIC
                0x000de2f4                disRNameCP0
                0x000de374                disR3000A
 .data          0x000de474        0x0 libpcsxcore/mdec.o
 .data          0x000de474       0x14 libpcsxcore/misc.o
                0x000de474                SaveFuncs
 .data          0x000de488       0x20 libpcsxcore/plugins.o
                0x000de488                mousepar
                0x000de490                analogpar
                0x000de49c                stdpar
 .data          0x000de4a8        0x0 libpcsxcore/ppf.o
 .data          0x000de4a8      0xc04 libpcsxcore/psxbios.o
                0x000de4ac                biosC0n
                0x000de8ac                biosB0n
                0x000decac                biosA0n
 .data          0x000df0ac        0x0 libpcsxcore/psxcommon.o
 .data          0x000df0ac        0x0 libpcsxcore/psxcounters.o
 .data          0x000df0ac        0x0 libpcsxcore/psxdma.o
 .data          0x000df0ac      0x400 libpcsxcore/psxhle.o
                0x000df0ac                psxHLEt
 .data          0x000df4ac        0x0 libpcsxcore/psxhw.o
 .data          0x000df4ac      0x518 libpcsxcore/psxinterpreter.o
                0x000df4ac                psxSPC
                0x000df5ac                psxREG
                0x000df62c                psxCP0
                0x000df6ac                psxCP2
                0x000df7ac                psxCP2BSC
                0x000df82c                LWR_SHIFT
                0x000df83c                LWR_MASK
                0x000df84c                LWL_SHIFT
                0x000df85c                LWL_MASK
                0x000df86c                SWR_MASK
                0x000df87c                SWR_SHIFT
                0x000df88c                SWL_MASK
                0x000df89c                SWL_SHIFT
                0x000df8ac                psxBSC
                0x000df9ac                psxInt
 .data          0x000df9c4        0x4 libpcsxcore/psxmem.o
 .data          0x000df9c8        0x0 libpcsxcore/r3000a.o
 .data          0x000df9c8        0xc libpcsxcore/sio.o
 .data          0x000df9d4        0x0 libpcsxcore/socket.o
 .data          0x000df9d4        0x0 libpcsxcore/spu.o
 .data          0x000df9d4        0x0 libpcsxcore/gte.o
 .data          0x000df9d4        0x0 libpcsxcore/gte_nf.o
 .data          0x000df9d4        0x0 libpcsxcore/gte_divider.o
 .data          0x000df9d4        0x0 libpcsxcore/gte_arm.o
 .data          0x000df9d4       0x40 libpcsxcore/new_dynarec/new_dynarec.o
                0x000df9d4                regname
 .data          0x000dfa14        0x0 libpcsxcore/new_dynarec/linkage_arm.o
 .data          0x000dfa14        0x0 libpcsxcore/new_dynarec/pcsxmem.o
 .data          0x000dfa14      0x218 libpcsxcore/new_dynarec/emu_if.o
                0x000dfa14                psxRec
                0x000dfa2c                gte_regnames
                0x000dfb2c                gte_handlers_nf
 .data          0x000dfc2c        0x0 plugins/dfsound/dma.o
 .data          0x000dfc2c        0x0 plugins/dfsound/freeze.o
 .data          0x000dfc2c        0x0 plugins/dfsound/registers.o
 .data          0x000dfc2c       0x20 plugins/dfsound/spu.o
                0x000dfc2c                iVolume
                0x000dfc30                lastch
                0x000dfc34                iUseReverb
                0x000dfc38                iUseInterpolation
                0x000dfc3c                iLeftXAVol
                0x000dfc40                iXAPitch
                0x000dfc44                spuAddr
                0x000dfc48                iRightXAVol
 .data          0x000dfc4c        0x0 plugins/dfsound/out.o
 .data          0x000dfc4c        0x0 plugins/dfsound/nullsnd.o
 .data          0x000dfc4c        0x0 plugins/dfsound/arm_utils.o
 .data          0x000dfc4c        0x0 plugins/dfsound/sdl.o
 .data          0x000dfc4c        0x0 plugins/gpulib/gpu.o
 .data          0x000dfc4c        0x0 plugins/gpulib/vout_pl.o
 .data          0x000dfc4c        0x2 plugins/gpu_unai/gpulib_if.o
 .data          0x000dfc4e        0x0 plugins/gpu_unai/gpu_arm.o
 .data          0x000dfc4e        0x0 plugins/cdrcimg/cdrcimg.o
 .data          0x000dfc4e        0x0 plugins/dfinput/main.o
 *fill*         0x000dfc4e        0x2 00
 .data          0x000dfc50       0x80 plugins/dfinput/pad.o
 .data          0x000dfcd0        0x0 plugins/dfinput/guncon.o
 .data          0x000dfcd0        0x0 frontend/cspace.o
 .data          0x000dfcd0        0x0 frontend/cspace_arm.o
 .data          0x000dfcd0        0x0 frontend/libpicofe/in_sdl.o
 .data          0x000dfcd0        0x8 frontend/libpicofe/plat_sdl.o
 .data          0x000dfcd8        0x0 frontend/libpicofe/plat_dummy.o
 .data          0x000dfcd8        0x0 frontend/libpicofe/linux/in_evdev.o
 .data          0x000dfcd8        0x0 frontend/plat_sdl.o
 .data          0x000dfcd8       0x50 frontend/libpicofe/gl.o
 .data          0x000dfd28        0x0 frontend/libpicofe/gl_platform.o
 .data          0x000dfd28       0xd8 frontend/plugin_lib.o
                0x000dfd28                pl_rearmed_cbs
                0x000dfdd8                in_adev
                0x000dfde0                in_adev_axis
                0x000dfdf0                in_a2
                0x000dfdf8                in_a1
 .data          0x000dfe00        0x0 frontend/libpicofe/linux/plat.o
 .data          0x000dfe00        0x0 frontend/libpicofe/readpng.o
 .data          0x000dfe00      0xc00 frontend/libpicofe/fonts.o
                0x000dfe00                fontdata8x8
                0x000e0200                fontdata6x8
 .data          0x000e0a00     0x19d4 frontend/menu.o
                0x000e0a08                me_ctrl_actions
                0x000e0a90                emuctrl_actions
                0x000e0b08                g_gamma
 .data          0x000e23d4        0x0 frontend/libpicofe/input.o
 .data          0x000e23d4        0x0 frontend/pl_gun_ts.o
 .data          0x000e23d4        0x0 frontend/main.o
 .data          0x000e23d4        0x0 frontend/plugin.o
 .data          0x000e23d4        0x0 /usr/lib/arm-linux-gnueabihf/libc_nonshared.a(elf-init.oS)
 .data          0x000e23d4        0x0 /usr/lib/gcc/arm-linux-gnueabihf/4.6/crtend.o
 .data          0x000e23d4        0x0 /usr/lib/gcc/arm-linux-gnueabihf/4.6/../../../arm-linux-gnueabihf/crtn.o

.data1
 *(.data1)
                0x000e23d4                _edata = .
                0x000e23d4                PROVIDE (edata, .)
                0x000e23d4                __bss_start = .
                0x000e23d4                __bss_start__ = .

.bss            0x000e3000  0x1670e08
 *(.dynbss)
 .dynbss        0x000e3000       0x10 /usr/lib/gcc/arm-linux-gnueabihf/4.6/../../../arm-linux-gnueabihf/crt1.o
                0x000e3000                stdin@@GLIBC_2.4
                0x000e3008                stderr@@GLIBC_2.4
                0x000e300c                stdout@@GLIBC_2.4
 *(.bss .bss.* .gnu.linkonce.b.*)
 .bss           0x000e3010        0x0 /usr/lib/gcc/arm-linux-gnueabihf/4.6/../../../arm-linux-gnueabihf/crt1.o
 .bss           0x000e3010        0x0 /usr/lib/gcc/arm-linux-gnueabihf/4.6/../../../arm-linux-gnueabihf/crti.o
 .bss           0x000e3010        0x1 /usr/lib/gcc/arm-linux-gnueabihf/4.6/crtbegin.o
 *fill*         0x000e3011        0x3 00
 .bss           0x000e3014     0x6db4 libpcsxcore/cdriso.o
 .bss           0x000e9dc8       0x18 libpcsxcore/cdrom.o
                0x000e9dd8                Test05
                0x000e9ddc                Test04
 .bss           0x000e9de0       0x28 libpcsxcore/cheat.o
                0x000e9de0                NumSearchResults
                0x000e9de8                SearchResults
                0x000e9dec                Cheats
                0x000e9df0                NumCheats
                0x000e9df4                NumCheatsAllocated
                0x000e9df8                CheatCodes
                0x000e9dfc                NumCodes
                0x000e9e00                NumCodesAllocated
                0x000e9e04                prevM
 .bss           0x000e9e08       0x54 libpcsxcore/debug.o
 .bss           0x000e9e5c        0x0 libpcsxcore/decode_xa.o
 .bss           0x000e9e5c        0x0 libpcsxcore/disr3000a.o
 .bss           0x000e9e5c      0x520 libpcsxcore/mdec.o
 .bss           0x000ea37c       0x30 libpcsxcore/misc.o
                0x000ea37c                CdromLabel
                0x000ea3a0                CdromId
 *fill*         0x000ea3ac        0x4 00
 .bss           0x000ea3b0      0x230 libpcsxcore/plugins.o
                0x000ea3b0                hCDRDriver
                0x000ea4c8                hGPUDriver
                0x000ea4cc                hSPUDriver
                0x000ea4d0                hPAD1Driver
                0x000ea4d4                hPAD2Driver
                0x000ea4d8                hNETDriver
 .bss           0x000ea5e0       0x10 libpcsxcore/ppf.o
 .bss           0x000ea5f0      0xb5c libpcsxcore/psxbios.o
                0x000eb130                hleSoftCall
 .bss           0x000eb14c        0xc libpcsxcore/psxcommon.o
                0x000eb14c                emuLog
                0x000eb150                Log
                0x000eb154                NetOpened
 .bss           0x000eb158       0x1c libpcsxcore/psxcounters.o
                0x000eb158                psxNextsCounter
                0x000eb15c                psxNextCounter
                0x000eb168                hSyncCount
                0x000eb16c                frame_counter
 .bss           0x000eb174        0x0 libpcsxcore/psxdma.o
 .bss           0x000eb174        0x0 libpcsxcore/psxhle.o
 .bss           0x000eb174        0x0 libpcsxcore/psxhw.o
 .bss           0x000eb174        0xc libpcsxcore/psxinterpreter.o
 .bss           0x000eb180       0x18 libpcsxcore/psxmem.o
                0x000eb180                psxMemRLUT
                0x000eb184                psxMemWLUT
                0x000eb188                psxM
                0x000eb18c                psxP
                0x000eb190                psxH
                0x000eb194                psxR
 .bss           0x000eb198        0x4 libpcsxcore/r3000a.o
                0x000eb198                psxCpu
 .bss           0x000eb19c      0x120 libpcsxcore/sio.o
 .bss           0x000eb2bc      0x210 libpcsxcore/socket.o
 .bss           0x000eb4cc        0x0 libpcsxcore/spu.o
 .bss           0x000eb4cc        0x0 libpcsxcore/gte.o
 .bss           0x000eb4cc        0x0 libpcsxcore/gte_nf.o
 .bss           0x000eb4cc        0x0 libpcsxcore/gte_divider.o
 .bss           0x000eb4cc        0x0 libpcsxcore/gte_arm.o
 *fill*         0x000eb4cc        0x4 00
 .bss           0x000eb4d0   0x140108 libpcsxcore/new_dynarec/new_dynarec.o
                0x0021b5c8                tracedebug
 *fill*         0x0022b5d8        0x8 00
 .bss           0x0022b5e0      0x710 libpcsxcore/new_dynarec/linkage_arm.o
                0x0022b5e0                dynarec_local
                0x0022b620                next_interupt
                0x0022b624                cycle_count
                0x0022b628                last_count
                0x0022b62c                pending_exception
                0x0022b630                stop
                0x0022b634                invc_ptr
                0x0022b638                address
                0x0022b63c                psxRegs
                0x0022b63c                reg
                0x0022b6bc                lo
                0x0022b6c0                hi
                0x0022b6c4                reg_cop0
                0x0022b744                reg_cop2d
                0x0022b7c4                reg_cop2c
                0x0022b844                pcaddr
                0x0022b954                rcnts
                0x0022b9c4                mem_rtab
                0x0022b9c8                mem_wtab
                0x0022b9cc                psxH_ptr
                0x0022b9d0                zeromem_ptr
                0x0022b9d4                inv_code_start
                0x0022b9d8                inv_code_end
                0x0022b9dc                branch_target
                0x0022b9e0                scratch_buf_ptr
                0x0022b9e4                FCR0
                0x0022b9e4                FCR31
                0x0022b9f0                mini_ht
                0x0022baf0                restore_candidate
 .bss           0x0022bcf0    0x1c008 libpcsxcore/new_dynarec/pcsxmem.o
 *fill*         0x00247cf8        0x8 00
 .bss           0x00247d00      0x200 libpcsxcore/new_dynarec/emu_if.o
 .bss           0x00247f00        0x0 plugins/dfsound/dma.o
 .bss           0x00247f00        0x0 plugins/dfsound/freeze.o
 .bss           0x00247f00        0x0 plugins/dfsound/registers.o
 .bss           0x00247f00      0x4b0 plugins/dfsound/spu.o
                0x00247f00                spuCtrl
                0x00247f04                pSpuIrq
                0x00247f08                spuStat
                0x00247f0c                irqCallback
                0x00247f10                dwChannelOn
                0x00248314                bSpuInit
                0x0024831c                dwNewChannel
                0x00248328                dwChannelDead
                0x0024832c                XAPlay
                0x00248330                XAFeed
                0x00248334                XARepeat
                0x00248338                XALastVal
                0x0024833c                XAEnd
                0x00248340                XAStart
                0x00248344                CDDAFeed
                0x00248348                CDDAEnd
                0x0024834c                CDDAStart
                0x00248350                CDDAPlay
                0x00248354                sRVBStart
                0x00248358                iCycle
                0x0024835c                bSPUIsOpen
                0x00248360                xapGlobal
                0x0024839c                sRVBEnd
                0x002483a0                sRVBPlay
                0x002483a4                spuIrq
                0x002483a8                cddavCallback
                0x002483ac                dwPendingChanOff
 .bss           0x002483b0       0x68 plugins/dfsound/out.o
 .bss           0x00248418        0x0 plugins/dfsound/nullsnd.o
 .bss           0x00248418        0x0 plugins/dfsound/arm_utils.o
 .bss           0x00248418       0x10 plugins/dfsound/sdl.o
                0x00248418                iReadPos
                0x0024841c                iWritePos
                0x00248420                pSndBuffer
                0x00248424                iBufSize
 .bss           0x00248428        0x0 plugins/gpulib/gpu.o
 .bss           0x00248428        0xc plugins/gpulib/vout_pl.o
 .bss           0x00248434    0x400e4 plugins/gpu_unai/gpulib_if.o
                0x002484d8                s_invTable
 .bss           0x00288518        0x0 plugins/gpu_unai/gpu_arm.o
 .bss           0x00288518       0x64 plugins/cdrcimg/cdrcimg.o
 .bss           0x0028857c        0x0 plugins/dfinput/main.o
 .bss           0x0028857c       0xd8 plugins/dfinput/pad.o
 .bss           0x00288654        0x8 plugins/dfinput/guncon.o
 .bss           0x0028865c      0x200 frontend/cspace.o
 .bss           0x0028885c        0x0 frontend/cspace_arm.o
 .bss           0x0028885c        0x4 frontend/libpicofe/in_sdl.o
 .bss           0x00288860       0x5c frontend/libpicofe/plat_sdl.o
 .bss           0x002888bc        0x0 frontend/libpicofe/plat_dummy.o
 .bss           0x002888bc        0x0 frontend/libpicofe/linux/in_evdev.o
 .bss           0x002888bc       0x14 frontend/plat_sdl.o
 .bss           0x002888d0       0x14 frontend/libpicofe/gl.o
 .bss           0x002888e4       0x28 frontend/libpicofe/gl_platform.o
 .bss           0x0028890c       0x64 frontend/plugin_lib.o
 .bss           0x00288970        0x4 frontend/libpicofe/linux/plat.o
 .bss           0x00288974        0x0 frontend/libpicofe/readpng.o
 .bss           0x00288974        0x0 frontend/libpicofe/fonts.o
 .bss           0x00288974      0x514 frontend/menu.o
                0x00288c50                menu_error_msg
 .bss           0x00288e88      0x174 frontend/libpicofe/input.o
 .bss           0x00288ffc       0x24 frontend/pl_gun_ts.o
 .bss           0x00289020       0x10 frontend/main.o
 .bss           0x00289030        0x0 frontend/plugin.o
 .bss           0x00289030        0x0 /usr/lib/arm-linux-gnueabihf/libc_nonshared.a(elf-init.oS)
 .bss           0x00289030        0x0 /usr/lib/gcc/arm-linux-gnueabihf/4.6/crtend.o
 .bss           0x00289030        0x0 /usr/lib/gcc/arm-linux-gnueabihf/4.6/../../../arm-linux-gnueabihf/crtn.o
 *(COMMON)
 COMMON         0x00289030        0xc libpcsxcore/cdriso.o
                0x00289030                cdrIsoMultidiskSelect
                0x00289034                cdrIsoMultidiskCount
                0x00289038                cdimg_read_func
 COMMON         0x0028903c     0x89d8 libpcsxcore/cdrom.o
                0x0028903c                cdr
 COMMON         0x00291a14      0x100 libpcsxcore/disr3000a.o
                0x00291a14                ostr
 COMMON         0x00291b14      0x26c libpcsxcore/plugins.o
                0x00291b14                CDR_getBuffer
                0x00291b18                PAD1_startPoll
                0x00291b1c                PAD1_setSensitive
                0x00291b20                PAD2_setSensitive
                0x00291b24                GPU_displayText
                0x00291b28                PAD2_close
                0x00291b2c                NET_recvPadData
                0x00291b30                PAD1_init
                0x00291b34                SPU_configure
                0x00291b38                PAD2_query
                0x00291b3c                PAD1_about
                0x00291b40                PAD2_startPoll
                0x00291b44                PAD2_keypressed
                0x00291b48                SPU_async
                0x00291b4c                CDR_getStatus
                0x00291b50                GPU_readData
                0x00291b54                NET_open
                0x00291b58                GPU_about
                0x00291b5c                CDR_configure
                0x00291b60                NET_sendData
                0x00291b64                CDR_getDriveLetter
                0x00291b68                GPU_configure
                0x00291b6c                GPU_writeDataMem
                0x00291b70                PAD1_poll
                0x00291b74                NET_setInfo
                0x00291b78                SPU_open
                0x00291b7c                SPU_playSample
                0x00291b80                SPU_shutdown
                0x00291b84                SPU_registerCallback
                0x00291b88                CDR_test
                0x00291b8c                GPU_init
                0x00291b90                padd1
                0x00291bf8                PAD1_shutdown
                0x00291bfc                PAD1_open
                0x00291c00                GPU_vBlank
                0x00291c04                SPU_playCDDAchannel
                0x00291c08                NET_configure
                0x00291c0c                GPU_getScreenPic
                0x00291c10                PAD1_keypressed
                0x00291c14                PAD1_close
                0x00291c18                NET_close
                0x00291c1c                CDR_init
                0x00291c20                padd2
                0x00291c88                GPU_freeze
                0x00291c8c                PAD2_readPort2
                0x00291c90                PAD2_open
                0x00291c94                CDR_stop
                0x00291c98                SPU_playADPCMchannel
                0x00291c9c                PAD2_init
                0x00291ca0                NET_test
                0x00291ca4                GPU_keypressed
                0x00291ca8                CDR_getTN
                0x00291cac                SPU_writeRegister
                0x00291cb0                CDR_open
                0x00291cb4                SPU_test
                0x00291cb8                GPU_shutdown
                0x00291cbc                GPU_close
                0x00291cc0                NET_resume
                0x00291cc4                NET_recvData
                0x00291cc8                SPU_init
                0x00291ccc                GPU_writeData
                0x00291cd0                SPU_freeze
                0x00291cd4                PAD2_test
                0x00291cd8                NET_pause
                0x00291cdc                SPU_about
                0x00291ce0                SPU_writeDMAMem
                0x00291ce4                SPU_writeDMA
                0x00291ce8                GPU_makeSnapshot
                0x00291cec                PAD2_about
                0x00291cf0                GPU_test
                0x00291cf4                CDR_getBufferSub
                0x00291cf8                PAD1_test
                0x00291cfc                CDR_setfilename
                0x00291d00                GPU_updateLace
                0x00291d04                CDR_readCDDA
                0x00291d08                PAD1_configure
                0x00291d0c                CDR_getTD
                0x00291d10                NET_sendPadData
                0x00291d14                SPU_close
                0x00291d18                PAD1_query
                0x00291d1c                PAD1_readPort1
                0x00291d20                CDR_close
                0x00291d24                PAD2_shutdown
                0x00291d28                PAD2_configure
                0x00291d2c                CDR_readTrack
                0x00291d30                NET_queryPlayer
                0x00291d34                CDR_play
                0x00291d38                NET_keypressed
                0x00291d3c                SPU_readDMAMem
                0x00291d40                SPU_readRegister
                0x00291d44                PAD2_poll
                0x00291d48                GPU_writeStatus
                0x00291d4c                NET_init
                0x00291d50                CDR_getTE
                0x00291d54                CDR_shutdown
                0x00291d58                GPU_open
                0x00291d5c                GPU_showScreenPic
                0x00291d60                NET_about
                0x00291d64                GPU_dmaChain
                0x00291d68                GPU_clearDynarec
                0x00291d6c                GPU_readDataMem
                0x00291d70                CDR_about
                0x00291d74                SPU_readDMA
                0x00291d78                NET_shutdown
                0x00291d7c                GPU_readStatus
 COMMON         0x00291d80        0x4 libpcsxcore/ppf.o
                0x00291d80                sbi_sectors
 COMMON         0x00291d84      0xc48 libpcsxcore/psxbios.o
                0x00291d84                biosB0
                0x00292184                biosC0
                0x00292584                biosA0
                0x00292984                ffile
                0x002929c4                pfile
                0x002929c8                nfile
 COMMON         0x002929cc      0xd0e libpcsxcore/psxcommon.o
                0x002929cc                Config
 COMMON         0x002936da        0x0 libpcsxcore/psxcounters.o
 *fill*         0x002936da        0x2 00
 COMMON         0x002936dc        0x8 libpcsxcore/psxmem.o
                0x002936dc                psxUnmapHook
                0x002936e0                psxMapHook
 COMMON         0x002936e4        0x0 libpcsxcore/r3000a.o
 COMMON         0x002936e4    0x40002 libpcsxcore/sio.o
                0x002936e4                Mcd2Data
                0x002b36e4                Mcd1Data
                0x002d36e4                McdDisable
 *fill*         0x002d36e6      0x91a 00
 COMMON         0x002d4000  0x12f720c libpcsxcore/new_dynarec/new_dynarec.o
                0x002d4000                source
                0x002d4004                opcode2
                0x002d5004                jump_out
                0x002d9004                slen
                0x002d9008                copy
                0x002d9010                pr32
                0x002e1010                literalcount
                0x002e1014                dep2
                0x002e2014                linkcount
                0x002e2018                unneeded_reg
                0x002ea018                rs1
                0x002eb018                out
                0x002eb01c                jump_in
                0x002ef01c                stop_after_jal
                0x002ef020                needed_reg
                0x002f3020                itype
                0x002f4020                rs2
                0x002f5020                rt2
                0x002f6020                instr_addr
                0x002fa020                opcode
                0x002fb020                cop1_usable
                0x002fb024                us2
                0x002fc024                will_dirty
                0x00300028                p32
                0x00308028                lt1
                0x00309028                jump_dirty
                0x0030d028                regmap_pre
                0x0031a028                ba
                0x0031e028                dep1
                0x0031f028                requires_32bit
                0x00327028                us1
                0x00328030                shadow
                0x00428030                new_dynarec_did_compile
                0x00428034                start
                0x00428038                minimum_free_regs
                0x00429038                imm
                0x0042d038                likely
                0x0042e038                insn
                0x00438038                branch_unneeded_reg_upper
                0x00440038                branch_unneeded_reg
                0x00448038                is_delayslot
                0x00448040                unneeded_reg_upper
                0x00450040                ccadj
                0x00454040                wont_dirty
                0x00458040                rt1
                0x00459040                ooo
                0x0045a040                new_dynarec_hacks
                0x0045a044                pagelimit
                0x0045b000                translation_cache
                0x0145b000                is_ds
                0x0145c000                stubs
                0x014bc000                hash_table
                0x015bc000                expirep
                0x015bc004                stubcount
                0x015bc008                bt
                0x015bd008                literals
                0x015bf008                link_addr
                0x015cb008                needs_clear_cache
                0x015cb208                cycle_multiplier
 COMMON         0x015cb20c     0x1000 libpcsxcore/new_dynarec/pcsxmem.o
                0x015cb20c                zero_mem
 COMMON         0x015cc20c   0x100138 libpcsxcore/new_dynarec/emu_if.o
                0x015cc20c                gte_handlers
                0x015cc30c                invalid_code
                0x016cc30c                event_cycles
 COMMON         0x016cc344    0x8679c plugins/dfsound/spu.o
                0x016cc344                regArea
                0x016d1164                dwNoiseCount
                0x016d1168                spuMem
                0x01751168                decode_pos
                0x0175116c                rvb
                0x01751268                dwNoiseVal
                0x0175126c                spuMemC
                0x01751270                had_dma
                0x01751274                ChanBuf
                0x017513e0                pSpuBuffer
                0x017513e4                s_chan
                0x017526a4                SSumLR
                0x0175297c                iFMod
                0x01752adc                pS
 COMMON         0x01752ae0        0x4 plugins/dfsound/out.o
                0x01752ae0                out_current
 COMMON         0x01752ae4     0x1108 plugins/gpulib/gpu.o
                0x01752ae4                gpu
 COMMON         0x01753bec        0x4 plugins/dfinput/main.o
                0x01753bec                CurByte
                0x01753bed                CurCmd
                0x01753bee                CurPad
                0x01753bef                CmdLen
 COMMON         0x01753bf0       0x14 frontend/libpicofe/plat_sdl.o
                0x01753bf0                plat_sdl_screen
                0x01753bf4                plat_sdl_quit_cb
                0x01753bf8                plat_sdl_gl_active
                0x01753bfc                plat_sdl_resize_cb
                0x01753c00                plat_sdl_overlay
 COMMON         0x01753c04       0x30 frontend/libpicofe/plat_dummy.o
                0x01753c04                plat_target
 COMMON         0x01753c34        0x4 frontend/libpicofe/linux/in_evdev.o
                0x01753c34                in_evdev_allow_abs_only
 COMMON         0x01753c38        0x8 frontend/libpicofe/gl.o
                0x01753c38                gl_es_display
                0x01753c3c                gl_es_surface
 COMMON         0x01753c40       0x40 frontend/plugin_lib.o
                0x01753c40                g_layer_w
                0x01753c44                in_state_gun
                0x01753c48                g_layer_y
                0x01753c4c                tsdev
                0x01753c50                pl_plat_hud_print
                0x01753c54                in_type1
                0x01753c58                in_adev_is_nublike
                0x01753c60                in_enable_vibration
                0x01753c64                pl_vout_buf
                0x01753c68                in_type2
                0x01753c6c                pl_plat_blit
                0x01753c70                pl_plat_clear
                0x01753c74                in_keystate
                0x01753c78                g_layer_h
                0x01753c7c                g_layer_x
 COMMON         0x01753c80       0x28 frontend/menu.o
                0x01753c80                g_opts
                0x01753c84                g_menuscreen_h
                0x01753c88                soft_scaling
                0x01753c8c                g_menubg_ptr
                0x01753c90                g_menuscreen_w
                0x01753c94                analog_deadzone
                0x01753c98                g_scaler
                0x01753c9c                g_menubg_src_ptr
                0x01753ca0                g_menuscreen_ptr
                0x01753ca4                soft_filter
 COMMON         0x01753ca8      0x160 frontend/main.o
                0x01753ca8                gpuDisp
                0x01753cac                hud_new_msg
                0x01753cb0                emu_action_old
                0x01753cb4                cfgfile_basename
                0x01753db4                g_emu_resetting
                0x01753db8                ready_to_go
                0x01753dbc                hud_msg
                0x01753dfc                emu_action
                0x01753e00                state_slot
                0x01753e04                g_emu_want_quit
                0x01753e08                . = ALIGN ((. != 0x0)?0x4:0x1)
                0x01753e08                _bss_end__ = .
                0x01753e08                __bss_end__ = .
                0x01753e08                . = ALIGN (0x4)
                0x01753e08                . = ALIGN (0x4)
                0x01753e08                __end__ = .
                0x01753e08                _end = .
                0x01753e08                PROVIDE (end, .)
                0x01753e08                . = DATA_SEGMENT_END (.)

.stab
 *(.stab)

.stabstr
 *(.stabstr)

.stab.excl
 *(.stab.excl)

.stab.exclstr
 *(.stab.exclstr)

.stab.index
 *(.stab.index)

.stab.indexstr
 *(.stab.indexstr)

.comment        0x00000000       0x43
 *(.comment)
 .comment       0x00000000       0x22 /usr/lib/gcc/arm-linux-gnueabihf/4.6/crtbegin.o
                                 0x23 (size before relaxing)
 .comment       0x00000000       0x23 libpcsxcore/cdriso.o
 .comment       0x00000000       0x23 libpcsxcore/cdrom.o
 .comment       0x00000000       0x23 libpcsxcore/cheat.o
 .comment       0x00000000       0x23 libpcsxcore/debug.o
 .comment       0x00000000       0x23 libpcsxcore/decode_xa.o
 .comment       0x00000000       0x23 libpcsxcore/disr3000a.o
 .comment       0x00000000       0x23 libpcsxcore/mdec.o
 .comment       0x00000000       0x23 libpcsxcore/misc.o
 .comment       0x00000000       0x23 libpcsxcore/plugins.o
 .comment       0x00000000       0x23 libpcsxcore/ppf.o
 .comment       0x00000000       0x23 libpcsxcore/psxbios.o
 .comment       0x00000000       0x23 libpcsxcore/psxcommon.o
 .comment       0x00000000       0x23 libpcsxcore/psxcounters.o
 .comment       0x00000000       0x23 libpcsxcore/psxdma.o
 .comment       0x00000000       0x23 libpcsxcore/psxhle.o
 .comment       0x00000000       0x23 libpcsxcore/psxhw.o
 .comment       0x00000000       0x23 libpcsxcore/psxinterpreter.o
 .comment       0x00000000       0x23 libpcsxcore/psxmem.o
 .comment       0x00000000       0x23 libpcsxcore/r3000a.o
 .comment       0x00000000       0x23 libpcsxcore/sio.o
 .comment       0x00000000       0x23 libpcsxcore/socket.o
 .comment       0x00000000       0x23 libpcsxcore/spu.o
 .comment       0x00000000       0x23 libpcsxcore/gte.o
 .comment       0x00000000       0x23 libpcsxcore/gte_nf.o
 .comment       0x00000000       0x23 libpcsxcore/gte_divider.o
 .comment       0x00000000       0x23 libpcsxcore/new_dynarec/new_dynarec.o
 .comment       0x00000000       0x23 libpcsxcore/new_dynarec/pcsxmem.o
 .comment       0x00000000       0x23 libpcsxcore/new_dynarec/emu_if.o
 .comment       0x00000000       0x23 plugins/dfsound/dma.o
 .comment       0x00000000       0x23 plugins/dfsound/freeze.o
 .comment       0x00000000       0x23 plugins/dfsound/registers.o
 .comment       0x00000000       0x23 plugins/dfsound/spu.o
 .comment       0x00000000       0x23 plugins/dfsound/out.o
 .comment       0x00000000       0x23 plugins/dfsound/nullsnd.o
 .comment       0x00000000       0x23 plugins/dfsound/sdl.o
 .comment       0x00000000       0x23 plugins/gpulib/gpu.o
 .comment       0x00000000       0x23 plugins/gpulib/vout_pl.o
 .comment       0x00000000       0x23 plugins/gpu_unai/gpulib_if.o
 .comment       0x00000000       0x23 plugins/cdrcimg/cdrcimg.o
 .comment       0x00000000       0x23 plugins/dfinput/main.o
 .comment       0x00000000       0x23 plugins/dfinput/pad.o
 .comment       0x00000000       0x23 plugins/dfinput/guncon.o
 .comment       0x00000000       0x23 frontend/cspace.o
 .comment       0x00000000       0x23 frontend/libpicofe/in_sdl.o
 .comment       0x00000000       0x23 frontend/libpicofe/plat_sdl.o
 .comment       0x00000000       0x23 frontend/libpicofe/plat_dummy.o
 .comment       0x00000000       0x23 frontend/libpicofe/linux/in_evdev.o
 .comment       0x00000000       0x23 frontend/plat_sdl.o
 .comment       0x00000000       0x23 frontend/libpicofe/gl.o
 .comment       0x00000000       0x23 frontend/libpicofe/gl_platform.o
 .comment       0x00000000       0x23 frontend/plugin_lib.o
 .comment       0x00000000       0x23 frontend/libpicofe/linux/plat.o
 .comment       0x00000000       0x23 frontend/libpicofe/readpng.o
 .comment       0x00000000       0x23 frontend/libpicofe/fonts.o
 .comment       0x00000000       0x23 frontend/menu.o
 .comment       0x00000000       0x23 frontend/libpicofe/input.o
 .comment       0x00000000       0x23 frontend/pl_gun_ts.o
 .comment       0x00000000       0x23 frontend/main.o
 .comment       0x00000000       0x23 frontend/plugin.o
 .comment       0x00000022       0x21 /usr/lib/arm-linux-gnueabihf/libc_nonshared.a(elf-init.oS)
                                 0x22 (size before relaxing)
 .comment       0x00000000       0x23 /usr/lib/gcc/arm-linux-gnueabihf/4.6/crtend.o

.ARM.attributes
                0x00000000       0x2d
 .ARM.attributes
                0x00000000       0x2f /usr/lib/gcc/arm-linux-gnueabihf/4.6/../../../arm-linux-gnueabihf/crt1.o
 .ARM.attributes
                0x0000002f       0x31 /usr/lib/gcc/arm-linux-gnueabihf/4.6/../../../arm-linux-gnueabihf/crti.o
 .ARM.attributes
                0x00000060       0x31 /usr/lib/gcc/arm-linux-gnueabihf/4.6/crtbegin.o
 .ARM.attributes
                0x00000091       0x2d libpcsxcore/cdriso.o
 .ARM.attributes
                0x000000be       0x2d libpcsxcore/cdrom.o
 .ARM.attributes
                0x000000eb       0x2d libpcsxcore/cheat.o
 .ARM.attributes
                0x00000118       0x2d libpcsxcore/debug.o
 .ARM.attributes
                0x00000145       0x2d libpcsxcore/decode_xa.o
 .ARM.attributes
                0x00000172       0x2d libpcsxcore/disr3000a.o
 .ARM.attributes
                0x0000019f       0x2d libpcsxcore/mdec.o
 .ARM.attributes
                0x000001cc       0x2d libpcsxcore/misc.o
 .ARM.attributes
                0x000001f9       0x2d libpcsxcore/plugins.o
 .ARM.attributes
                0x00000226       0x2d libpcsxcore/ppf.o
 .ARM.attributes
                0x00000253       0x2d libpcsxcore/psxbios.o
 .ARM.attributes
                0x00000280       0x2d libpcsxcore/psxcommon.o
 .ARM.attributes
                0x000002ad       0x2d libpcsxcore/psxcounters.o
 .ARM.attributes
                0x000002da       0x2d libpcsxcore/psxdma.o
 .ARM.attributes
                0x00000307       0x2d libpcsxcore/psxhle.o
 .ARM.attributes
                0x00000334       0x2d libpcsxcore/psxhw.o
 .ARM.attributes
                0x00000361       0x2d libpcsxcore/psxinterpreter.o
 .ARM.attributes
                0x0000038e       0x2d libpcsxcore/psxmem.o
 .ARM.attributes
                0x000003bb       0x2d libpcsxcore/r3000a.o
 .ARM.attributes
                0x000003e8       0x2d libpcsxcore/sio.o
 .ARM.attributes
                0x00000415       0x2d libpcsxcore/socket.o
 .ARM.attributes
                0x00000442       0x2d libpcsxcore/spu.o
 .ARM.attributes
                0x0000046f       0x2d libpcsxcore/gte.o
 .ARM.attributes
                0x0000049c       0x2d libpcsxcore/gte_nf.o
 .ARM.attributes
                0x000004c9       0x2d libpcsxcore/gte_divider.o
 .ARM.attributes
                0x000004f6       0x1d libpcsxcore/gte_arm.o
 .ARM.attributes
                0x00000513       0x2d libpcsxcore/new_dynarec/new_dynarec.o
 .ARM.attributes
                0x00000540       0x1d libpcsxcore/new_dynarec/linkage_arm.o
 .ARM.attributes
                0x0000055d       0x2d libpcsxcore/new_dynarec/pcsxmem.o
 .ARM.attributes
                0x0000058a       0x2d libpcsxcore/new_dynarec/emu_if.o
 .ARM.attributes
                0x000005b7       0x2d plugins/dfsound/dma.o
 .ARM.attributes
                0x000005e4       0x2d plugins/dfsound/freeze.o
 .ARM.attributes
                0x00000611       0x2d plugins/dfsound/registers.o
 .ARM.attributes
                0x0000063e       0x2d plugins/dfsound/spu.o
 .ARM.attributes
                0x0000066b       0x2d plugins/dfsound/out.o
 .ARM.attributes
                0x00000698       0x2d plugins/dfsound/nullsnd.o
 .ARM.attributes
                0x000006c5       0x1d plugins/dfsound/arm_utils.o
 .ARM.attributes
                0x000006e2       0x2d plugins/dfsound/sdl.o
 .ARM.attributes
                0x0000070f       0x2d plugins/gpulib/gpu.o
 .ARM.attributes
                0x0000073c       0x2d plugins/gpulib/vout_pl.o
 .ARM.attributes
                0x00000769       0x2d plugins/gpu_unai/gpulib_if.o
 .ARM.attributes
                0x00000796       0x18 plugins/gpu_unai/gpu_arm.o
 .ARM.attributes
                0x000007ae       0x2d plugins/cdrcimg/cdrcimg.o
 .ARM.attributes
                0x000007db       0x2d plugins/dfinput/main.o
 .ARM.attributes
                0x00000808       0x2d plugins/dfinput/pad.o
 .ARM.attributes
                0x00000835       0x2d plugins/dfinput/guncon.o
 .ARM.attributes
                0x00000862       0x2d frontend/cspace.o
 .ARM.attributes
                0x0000088f       0x1d frontend/cspace_arm.o
 .ARM.attributes
                0x000008ac       0x2d frontend/libpicofe/in_sdl.o
 .ARM.attributes
                0x000008d9       0x2d frontend/libpicofe/plat_sdl.o
 .ARM.attributes
                0x00000906       0x2d frontend/libpicofe/plat_dummy.o
 .ARM.attributes
                0x00000933       0x2d frontend/libpicofe/linux/in_evdev.o
 .ARM.attributes
                0x00000960       0x2d frontend/plat_sdl.o
 .ARM.attributes
                0x0000098d       0x2d frontend/libpicofe/gl.o
 .ARM.attributes
                0x000009ba       0x2d frontend/libpicofe/gl_platform.o
 .ARM.attributes
                0x000009e7       0x2d frontend/plugin_lib.o
 .ARM.attributes
                0x00000a14       0x2d frontend/libpicofe/linux/plat.o
 .ARM.attributes
                0x00000a41       0x2d frontend/libpicofe/readpng.o
 .ARM.attributes
                0x00000a6e       0x2d frontend/libpicofe/fonts.o
 .ARM.attributes
                0x00000a9b       0x2d frontend/menu.o
 .ARM.attributes
                0x00000ac8       0x2d frontend/libpicofe/input.o
 .ARM.attributes
                0x00000af5       0x2d frontend/pl_gun_ts.o
 .ARM.attributes
                0x00000b22       0x2d frontend/main.o
 .ARM.attributes
                0x00000b4f       0x2d frontend/plugin.o
 .ARM.attributes
                0x00000b7c       0x31 /usr/lib/arm-linux-gnueabihf/libc_nonshared.a(elf-init.oS)
 .ARM.attributes
                0x00000bad       0x31 /usr/lib/gcc/arm-linux-gnueabihf/4.6/crtend.o
 .ARM.attributes
                0x00000bde       0x31 /usr/lib/gcc/arm-linux-gnueabihf/4.6/../../../arm-linux-gnueabihf/crtn.o

.debug
 *(.debug)

.line
 *(.line)

.debug_srcinfo
 *(.debug_srcinfo)

.debug_sfnames
 *(.debug_sfnames)

.debug_aranges  0x00000000      0x7f0
 *(.debug_aranges)
 .debug_aranges
                0x00000000       0x20 libpcsxcore/cdriso.o
 .debug_aranges
                0x00000020       0x20 libpcsxcore/cdrom.o
 .debug_aranges
                0x00000040       0x20 libpcsxcore/cheat.o
 .debug_aranges
                0x00000060       0x20 libpcsxcore/debug.o
 .debug_aranges
                0x00000080       0x20 libpcsxcore/decode_xa.o
 .debug_aranges
                0x000000a0       0x20 libpcsxcore/disr3000a.o
 .debug_aranges
                0x000000c0       0x20 libpcsxcore/mdec.o
 .debug_aranges
                0x000000e0       0x20 libpcsxcore/misc.o
 .debug_aranges
                0x00000100       0x20 libpcsxcore/plugins.o
 .debug_aranges
                0x00000120       0x20 libpcsxcore/ppf.o
 .debug_aranges
                0x00000140       0x20 libpcsxcore/psxbios.o
 .debug_aranges
                0x00000160       0x20 libpcsxcore/psxcommon.o
 .debug_aranges
                0x00000180       0x20 libpcsxcore/psxcounters.o
 .debug_aranges
                0x000001a0       0x20 libpcsxcore/psxdma.o
 .debug_aranges
                0x000001c0       0x20 libpcsxcore/psxhle.o
 .debug_aranges
                0x000001e0       0x20 libpcsxcore/psxhw.o
 .debug_aranges
                0x00000200       0x20 libpcsxcore/psxinterpreter.o
 .debug_aranges
                0x00000220       0x20 libpcsxcore/psxmem.o
 .debug_aranges
                0x00000240       0x20 libpcsxcore/r3000a.o
 .debug_aranges
                0x00000260       0x20 libpcsxcore/sio.o
 .debug_aranges
                0x00000280       0x20 libpcsxcore/socket.o
 .debug_aranges
                0x000002a0       0x20 libpcsxcore/spu.o
 .debug_aranges
                0x000002c0       0x20 libpcsxcore/gte.o
 .debug_aranges
                0x000002e0       0x20 libpcsxcore/gte_nf.o
 .debug_aranges
                0x00000300       0x20 libpcsxcore/gte_divider.o
 .debug_aranges
                0x00000320       0x20 libpcsxcore/gte_arm.o
 .debug_aranges
                0x00000340       0x20 libpcsxcore/new_dynarec/new_dynarec.o
 .debug_aranges
                0x00000360       0x20 libpcsxcore/new_dynarec/linkage_arm.o
 .debug_aranges
                0x00000380       0x20 libpcsxcore/new_dynarec/pcsxmem.o
 .debug_aranges
                0x000003a0       0x20 libpcsxcore/new_dynarec/emu_if.o
 .debug_aranges
                0x000003c0       0x20 plugins/dfsound/dma.o
 .debug_aranges
                0x000003e0       0x20 plugins/dfsound/freeze.o
 .debug_aranges
                0x00000400       0x20 plugins/dfsound/registers.o
 .debug_aranges
                0x00000420       0x28 plugins/dfsound/spu.o
 .debug_aranges
                0x00000448       0x20 plugins/dfsound/out.o
 .debug_aranges
                0x00000468       0x20 plugins/dfsound/nullsnd.o
 .debug_aranges
                0x00000488       0x20 plugins/dfsound/arm_utils.o
 .debug_aranges
                0x000004a8       0x20 plugins/dfsound/sdl.o
 .debug_aranges
                0x000004c8       0x20 plugins/gpulib/gpu.o
 .debug_aranges
                0x000004e8       0x20 plugins/gpulib/vout_pl.o
 .debug_aranges
                0x00000508       0x20 plugins/gpu_unai/gpulib_if.o
 .debug_aranges
                0x00000528       0x20 plugins/cdrcimg/cdrcimg.o
 .debug_aranges
                0x00000548       0x20 plugins/dfinput/main.o
 .debug_aranges
                0x00000568       0x20 plugins/dfinput/pad.o
 .debug_aranges
                0x00000588       0x20 plugins/dfinput/guncon.o
 .debug_aranges
                0x000005a8       0x20 frontend/cspace.o
 .debug_aranges
                0x000005c8       0x20 frontend/cspace_arm.o
 .debug_aranges
                0x000005e8       0x20 frontend/libpicofe/in_sdl.o
 .debug_aranges
                0x00000608       0x20 frontend/libpicofe/plat_sdl.o
 .debug_aranges
                0x00000628       0x20 frontend/libpicofe/plat_dummy.o
 .debug_aranges
                0x00000648       0x20 frontend/libpicofe/linux/in_evdev.o
 .debug_aranges
                0x00000668       0x20 frontend/plat_sdl.o
 .debug_aranges
                0x00000688       0x20 frontend/libpicofe/gl.o
 .debug_aranges
                0x000006a8       0x20 frontend/libpicofe/gl_platform.o
 .debug_aranges
                0x000006c8       0x20 frontend/plugin_lib.o
 .debug_aranges
                0x000006e8       0x20 frontend/libpicofe/linux/plat.o
 .debug_aranges
                0x00000708       0x20 frontend/libpicofe/readpng.o
 .debug_aranges
                0x00000728       0x20 frontend/libpicofe/fonts.o
 .debug_aranges
                0x00000748       0x20 frontend/menu.o
 .debug_aranges
                0x00000768       0x20 frontend/libpicofe/input.o
 .debug_aranges
                0x00000788       0x20 frontend/pl_gun_ts.o
 .debug_aranges
                0x000007a8       0x28 frontend/main.o
 .debug_aranges
                0x000007d0       0x20 frontend/plugin.o

.debug_pubnames
 *(.debug_pubnames)

.debug_info     0x00000000    0x9859e
 *(.debug_info .gnu.linkonce.wi.*)
 .debug_info    0x00000000     0x2be8 libpcsxcore/cdriso.o
 .debug_info    0x00002be8     0x2865 libpcsxcore/cdrom.o
 .debug_info    0x0000544d      0xfc5 libpcsxcore/cheat.o
 .debug_info    0x00006412     0x17f9 libpcsxcore/debug.o
 .debug_info    0x00007c0b      0xd53 libpcsxcore/decode_xa.o
 .debug_info    0x0000895e     0x26b0 libpcsxcore/disr3000a.o
 .debug_info    0x0000b00e     0x1f20 libpcsxcore/mdec.o
 .debug_info    0x0000cf2e     0x2328 libpcsxcore/misc.o
 .debug_info    0x0000f256     0x2355 libpcsxcore/plugins.o
 .debug_info    0x000115ab      0xb7a libpcsxcore/ppf.o
 .debug_info    0x00012125     0x3b34 libpcsxcore/psxbios.o
 .debug_info    0x00015c59      0x687 libpcsxcore/psxcommon.o
 .debug_info    0x000162e0     0x1a82 libpcsxcore/psxcounters.o
 .debug_info    0x00017d62     0x147c libpcsxcore/psxdma.o
 .debug_info    0x000191de     0x1109 libpcsxcore/psxhle.o
 .debug_info    0x0001a2e7     0x1415 libpcsxcore/psxhw.o
 .debug_info    0x0001b6fc     0x2307 libpcsxcore/psxinterpreter.o
 .debug_info    0x0001da03      0xb95 libpcsxcore/psxmem.o
 .debug_info    0x0001e598     0x1352 libpcsxcore/r3000a.o
 .debug_info    0x0001f8ea     0x1f6e libpcsxcore/sio.o
 .debug_info    0x00021858      0x6a1 libpcsxcore/socket.o
 .debug_info    0x00021ef9      0x352 libpcsxcore/spu.o
 .debug_info    0x0002224b     0x60bb libpcsxcore/gte.o
 .debug_info    0x00028306     0x1a91 libpcsxcore/gte_nf.o
 .debug_info    0x00029d97      0x408 libpcsxcore/gte_divider.o
 .debug_info    0x0002a19f       0x52 libpcsxcore/gte_arm.o
 .debug_info    0x0002a1f1    0x1f9fd libpcsxcore/new_dynarec/new_dynarec.o
 .debug_info    0x00049bee       0x62 libpcsxcore/new_dynarec/linkage_arm.o
 .debug_info    0x00049c50     0x1dc1 libpcsxcore/new_dynarec/pcsxmem.o
 .debug_info    0x0004ba11     0x1580 libpcsxcore/new_dynarec/emu_if.o
 .debug_info    0x0004cf91      0x40e plugins/dfsound/dma.o
 .debug_info    0x0004d39f      0xd2f plugins/dfsound/freeze.o
 .debug_info    0x0004e0ce      0xf25 plugins/dfsound/registers.o
 .debug_info    0x0004eff3     0x2bd4 plugins/dfsound/spu.o
 .debug_info    0x00051bc7      0x424 plugins/dfsound/out.o
 .debug_info    0x00051feb      0x15e plugins/dfsound/nullsnd.o
 .debug_info    0x00052149       0x58 plugins/dfsound/arm_utils.o
 .debug_info    0x000521a1      0x6f6 plugins/dfsound/sdl.o
 .debug_info    0x00052897     0x15ea plugins/gpulib/gpu.o
 .debug_info    0x00053e81      0xb98 plugins/gpulib/vout_pl.o
 .debug_info    0x00054a19    0x296b1 plugins/gpu_unai/gpulib_if.o
 .debug_info    0x0007e0ca      0xd6e plugins/cdrcimg/cdrcimg.o
 .debug_info    0x0007ee38      0x1ea plugins/dfinput/main.o
 .debug_info    0x0007f022      0x422 plugins/dfinput/pad.o
 .debug_info    0x0007f444      0x14b plugins/dfinput/guncon.o
 .debug_info    0x0007f58f      0x548 frontend/cspace.o
 .debug_info    0x0007fad7       0x52 frontend/cspace_arm.o
 .debug_info    0x0007fb29     0x1a55 frontend/libpicofe/in_sdl.o
 .debug_info    0x0008157e     0x31b0 frontend/libpicofe/plat_sdl.o
 .debug_info    0x0008472e      0x1c8 frontend/libpicofe/plat_dummy.o
 .debug_info    0x000848f6     0x10c5 frontend/libpicofe/linux/in_evdev.o
 .debug_info    0x000859bb     0x196a frontend/plat_sdl.o
 .debug_info    0x00087325      0x7a4 frontend/libpicofe/gl.o
 .debug_info    0x00087ac9      0xd19 frontend/libpicofe/gl_platform.o
 .debug_info    0x000887e2     0x1b63 frontend/plugin_lib.o
 .debug_info    0x0008a345      0x8bb frontend/libpicofe/linux/plat.o
 .debug_info    0x0008ac00     0x1c98 frontend/libpicofe/readpng.o
 .debug_info    0x0008c898      0x5e1 frontend/libpicofe/fonts.o
 .debug_info    0x0008ce79     0x6b85 frontend/menu.o
 .debug_info    0x000939fe     0x1a01 frontend/libpicofe/input.o
 .debug_info    0x000953ff      0x731 frontend/pl_gun_ts.o
 .debug_info    0x00095b30     0x20cc frontend/main.o
 .debug_info    0x00097bfc      0x9a2 frontend/plugin.o

.debug_abbrev   0x00000000     0xab35
 *(.debug_abbrev)
 .debug_abbrev  0x00000000      0x4f5 libpcsxcore/cdriso.o
 .debug_abbrev  0x000004f5      0x4c4 libpcsxcore/cdrom.o
 .debug_abbrev  0x000009b9      0x28b libpcsxcore/cheat.o
 .debug_abbrev  0x00000c44      0x307 libpcsxcore/debug.o
 .debug_abbrev  0x00000f4b      0x2d8 libpcsxcore/decode_xa.o
 .debug_abbrev  0x00001223      0x272 libpcsxcore/disr3000a.o
 .debug_abbrev  0x00001495      0x3d8 libpcsxcore/mdec.o
 .debug_abbrev  0x0000186d      0x3e1 libpcsxcore/misc.o
 .debug_abbrev  0x00001c4e      0x4bd libpcsxcore/plugins.o
 .debug_abbrev  0x0000210b      0x28a libpcsxcore/ppf.o
 .debug_abbrev  0x00002395      0x404 libpcsxcore/psxbios.o
 .debug_abbrev  0x00002799      0x1b0 libpcsxcore/psxcommon.o
 .debug_abbrev  0x00002949      0x383 libpcsxcore/psxcounters.o
 .debug_abbrev  0x00002ccc      0x26f libpcsxcore/psxdma.o
 .debug_abbrev  0x00002f3b      0x1b1 libpcsxcore/psxhle.o
 .debug_abbrev  0x000030ec      0x259 libpcsxcore/psxhw.o
 .debug_abbrev  0x00003345      0x429 libpcsxcore/psxinterpreter.o
 .debug_abbrev  0x0000376e      0x2d3 libpcsxcore/psxmem.o
 .debug_abbrev  0x00003a41      0x23f libpcsxcore/r3000a.o
 .debug_abbrev  0x00003c80      0x3fa libpcsxcore/sio.o
 .debug_abbrev  0x0000407a      0x1c4 libpcsxcore/socket.o
 .debug_abbrev  0x0000423e       0xd3 libpcsxcore/spu.o
 .debug_abbrev  0x00004311      0x329 libpcsxcore/gte.o
 .debug_abbrev  0x0000463a      0x250 libpcsxcore/gte_nf.o
 .debug_abbrev  0x0000488a      0x146 libpcsxcore/gte_divider.o
 .debug_abbrev  0x000049d0       0x14 libpcsxcore/gte_arm.o
 .debug_abbrev  0x000049e4      0x6ab libpcsxcore/new_dynarec/new_dynarec.o
 .debug_abbrev  0x0000508f       0x14 libpcsxcore/new_dynarec/linkage_arm.o
 .debug_abbrev  0x000050a3      0x3d7 libpcsxcore/new_dynarec/pcsxmem.o
 .debug_abbrev  0x0000547a      0x371 libpcsxcore/new_dynarec/emu_if.o
 .debug_abbrev  0x000057eb      0x148 plugins/dfsound/dma.o
 .debug_abbrev  0x00005933      0x1ff plugins/dfsound/freeze.o
 .debug_abbrev  0x00005b32      0x28b plugins/dfsound/registers.o
 .debug_abbrev  0x00005dbd      0x4db plugins/dfsound/spu.o
 .debug_abbrev  0x00006298      0x143 plugins/dfsound/out.o
 .debug_abbrev  0x000063db       0xf1 plugins/dfsound/nullsnd.o
 .debug_abbrev  0x000064cc       0x14 plugins/dfsound/arm_utils.o
 .debug_abbrev  0x000064e0      0x229 plugins/dfsound/sdl.o
 .debug_abbrev  0x00006709      0x3ef plugins/gpulib/gpu.o
 .debug_abbrev  0x00006af8      0x222 plugins/gpulib/vout_pl.o
 .debug_abbrev  0x00006d1a      0x59e plugins/gpu_unai/gpulib_if.o
 .debug_abbrev  0x000072b8      0x358 plugins/cdrcimg/cdrcimg.o
 .debug_abbrev  0x00007610       0xe5 plugins/dfinput/main.o
 .debug_abbrev  0x000076f5      0x1ce plugins/dfinput/pad.o
 .debug_abbrev  0x000078c3       0xec plugins/dfinput/guncon.o
 .debug_abbrev  0x000079af      0x10b frontend/cspace.o
 .debug_abbrev  0x00007aba       0x14 frontend/cspace_arm.o
 .debug_abbrev  0x00007ace      0x341 frontend/libpicofe/in_sdl.o
 .debug_abbrev  0x00007e0f      0x2f3 frontend/libpicofe/plat_sdl.o
 .debug_abbrev  0x00008102       0xb0 frontend/libpicofe/plat_dummy.o
 .debug_abbrev  0x000081b2      0x34f frontend/libpicofe/linux/in_evdev.o
 .debug_abbrev  0x00008501      0x392 frontend/plat_sdl.o
 .debug_abbrev  0x00008893      0x1f4 frontend/libpicofe/gl.o
 .debug_abbrev  0x00008a87      0x209 frontend/libpicofe/gl_platform.o
 .debug_abbrev  0x00008c90      0x51c frontend/plugin_lib.o
 .debug_abbrev  0x000091ac      0x202 frontend/libpicofe/linux/plat.o
 .debug_abbrev  0x000093ae      0x1f2 frontend/libpicofe/readpng.o
 .debug_abbrev  0x000095a0      0x1af frontend/libpicofe/fonts.o
 .debug_abbrev  0x0000974f      0x698 frontend/menu.o
 .debug_abbrev  0x00009de7      0x3d7 frontend/libpicofe/input.o
 .debug_abbrev  0x0000a1be      0x1ba frontend/pl_gun_ts.o
 .debug_abbrev  0x0000a378      0x5ae frontend/main.o
 .debug_abbrev  0x0000a926      0x20f frontend/plugin.o

.debug_line     0x00000000    0x2c38d
 *(.debug_line)
 .debug_line    0x00000000      0xc9e libpcsxcore/cdriso.o
 .debug_line    0x00000c9e      0xa1a libpcsxcore/cdrom.o
 .debug_line    0x000016b8      0x6a5 libpcsxcore/cheat.o
 .debug_line    0x00001d5d      0x969 libpcsxcore/debug.o
 .debug_line    0x000026c6      0x684 libpcsxcore/decode_xa.o
 .debug_line    0x00002d4a      0x2c6 libpcsxcore/disr3000a.o
 .debug_line    0x00003010      0x669 libpcsxcore/mdec.o
 .debug_line    0x00003679      0x750 libpcsxcore/misc.o
 .debug_line    0x00003dc9      0x6ab libpcsxcore/plugins.o
 .debug_line    0x00004474      0x347 libpcsxcore/ppf.o
 .debug_line    0x000047bb     0x160e libpcsxcore/psxbios.o
 .debug_line    0x00005dc9      0x150 libpcsxcore/psxcommon.o
 .debug_line    0x00005f19      0x48a libpcsxcore/psxcounters.o
 .debug_line    0x000063a3      0x236 libpcsxcore/psxdma.o
 .debug_line    0x000065d9      0x167 libpcsxcore/psxhle.o
 .debug_line    0x00006740      0x4f1 libpcsxcore/psxhw.o
 .debug_line    0x00006c31      0x4ac libpcsxcore/psxinterpreter.o
 .debug_line    0x000070dd      0x30e libpcsxcore/psxmem.o
 .debug_line    0x000073eb      0x1fc libpcsxcore/r3000a.o
 .debug_line    0x000075e7      0x678 libpcsxcore/sio.o
 .debug_line    0x00007c5f      0x1fb libpcsxcore/socket.o
 .debug_line    0x00007e5a       0xf7 libpcsxcore/spu.o
 .debug_line    0x00007f51     0x203c libpcsxcore/gte.o
 .debug_line    0x00009f8d     0x15b4 libpcsxcore/gte_nf.o
 .debug_line    0x0000b541      0x128 libpcsxcore/gte_divider.o
 .debug_line    0x0000b669      0x115 libpcsxcore/gte_arm.o
 .debug_line    0x0000b77e     0xcd2f libpcsxcore/new_dynarec/new_dynarec.o
 .debug_line    0x000184ad      0x200 libpcsxcore/new_dynarec/linkage_arm.o
 .debug_line    0x000186ad      0x4ae libpcsxcore/new_dynarec/pcsxmem.o
 .debug_line    0x00018b5b      0x263 libpcsxcore/new_dynarec/emu_if.o
 .debug_line    0x00018dbe      0x13f plugins/dfsound/dma.o
 .debug_line    0x00018efd      0x446 plugins/dfsound/freeze.o
 .debug_line    0x00019343      0x377 plugins/dfsound/registers.o
 .debug_line    0x000196ba     0x1392 plugins/dfsound/spu.o
 .debug_line    0x0001aa4c      0x100 plugins/dfsound/out.o
 .debug_line    0x0001ab4c       0x5e plugins/dfsound/nullsnd.o
 .debug_line    0x0001abaa       0x86 plugins/dfsound/arm_utils.o
 .debug_line    0x0001ac30      0x1ca plugins/dfsound/sdl.o
 .debug_line    0x0001adfa      0x578 plugins/gpulib/gpu.o
 .debug_line    0x0001b372      0x167 plugins/gpulib/vout_pl.o
 .debug_line    0x0001b4d9     0xba12 plugins/gpu_unai/gpulib_if.o
 .debug_line    0x00026eeb      0x2da plugins/cdrcimg/cdrcimg.o
 .debug_line    0x000271c5       0x9b plugins/dfinput/main.o
 .debug_line    0x00027260      0x157 plugins/dfinput/pad.o
 .debug_line    0x000273b7       0xa1 plugins/dfinput/guncon.o
 .debug_line    0x00027458      0x461 frontend/cspace.o
 .debug_line    0x000278b9       0x5f frontend/cspace_arm.o
 .debug_line    0x00027918      0x2e7 frontend/libpicofe/in_sdl.o
 .debug_line    0x00027bff      0x372 frontend/libpicofe/plat_sdl.o
 .debug_line    0x00027f71       0x5c frontend/libpicofe/plat_dummy.o
 .debug_line    0x00027fcd      0x403 frontend/libpicofe/linux/in_evdev.o
 .debug_line    0x000283d0      0x308 frontend/plat_sdl.o
 .debug_line    0x000286d8      0x2dd frontend/libpicofe/gl.o
 .debug_line    0x000289b5      0x2a5 frontend/libpicofe/gl_platform.o
 .debug_line    0x00028c5a      0x5e8 frontend/plugin_lib.o
 .debug_line    0x00029242      0x256 frontend/libpicofe/linux/plat.o
 .debug_line    0x00029498      0x32e frontend/libpicofe/readpng.o
 .debug_line    0x000297c6      0x186 frontend/libpicofe/fonts.o
 .debug_line    0x0002994c     0x1929 frontend/menu.o
 .debug_line    0x0002b275      0x678 frontend/libpicofe/input.o
 .debug_line    0x0002b8ed      0x1d8 frontend/pl_gun_ts.o
 .debug_line    0x0002bac5      0x781 frontend/main.o
 .debug_line    0x0002c246      0x147 frontend/plugin.o

.debug_frame    0x00000000     0xdee0
 *(.debug_frame)
 .debug_frame   0x00000000      0x2e0 libpcsxcore/cdriso.o
 .debug_frame   0x000002e0      0x274 libpcsxcore/cdrom.o
 .debug_frame   0x00000554      0x500 libpcsxcore/cheat.o
 .debug_frame   0x00000a54      0x154 libpcsxcore/debug.o
 .debug_frame   0x00000ba8       0x60 libpcsxcore/decode_xa.o
 .debug_frame   0x00000c08      0xbd4 libpcsxcore/disr3000a.o
 .debug_frame   0x000017dc      0x178 libpcsxcore/mdec.o
 .debug_frame   0x00001954      0x258 libpcsxcore/misc.o
 .debug_frame   0x00001bac      0x3b0 libpcsxcore/plugins.o
 .debug_frame   0x00001f5c       0xd4 libpcsxcore/ppf.o
 .debug_frame   0x00002030      0xb0c libpcsxcore/psxbios.o
 .debug_frame   0x00002b3c       0x8c libpcsxcore/psxcommon.o
 .debug_frame   0x00002bc8      0x15c libpcsxcore/psxcounters.o
 .debug_frame   0x00002d24       0x98 libpcsxcore/psxdma.o
 .debug_frame   0x00002dbc       0x9c libpcsxcore/psxhle.o
 .debug_frame   0x00002e58       0xd0 libpcsxcore/psxhw.o
 .debug_frame   0x00002f28      0x654 libpcsxcore/psxinterpreter.o
 .debug_frame   0x0000357c      0x160 libpcsxcore/psxmem.o
 .debug_frame   0x000036dc       0xcc libpcsxcore/r3000a.o
 .debug_frame   0x000037a8      0x1dc libpcsxcore/sio.o
 .debug_frame   0x00003984      0x118 libpcsxcore/socket.o
 .debug_frame   0x00003a9c       0x20 libpcsxcore/spu.o
 .debug_frame   0x00003abc      0x4dc libpcsxcore/gte.o
 .debug_frame   0x00003f98      0x3e8 libpcsxcore/gte_nf.o
 .debug_frame   0x00004380       0x34 libpcsxcore/gte_divider.o
 .debug_frame   0x000043b4     0x25b4 libpcsxcore/new_dynarec/new_dynarec.o
 .debug_frame   0x00006968      0x408 libpcsxcore/new_dynarec/pcsxmem.o
 .debug_frame   0x00006d70      0x16c libpcsxcore/new_dynarec/emu_if.o
 .debug_frame   0x00006edc       0x64 plugins/dfsound/dma.o
 .debug_frame   0x00006f40       0x7c plugins/dfsound/freeze.o
 .debug_frame   0x00006fbc       0x68 plugins/dfsound/registers.o
 .debug_frame   0x00007024      0x28c plugins/dfsound/spu.o
 .debug_frame   0x000072b0       0x30 plugins/dfsound/out.o
 .debug_frame   0x000072e0       0x60 plugins/dfsound/nullsnd.o
 .debug_frame   0x00007340       0xc4 plugins/dfsound/sdl.o
 .debug_frame   0x00007404      0x2c4 plugins/gpulib/gpu.o
 .debug_frame   0x000076c8       0xcc plugins/gpulib/vout_pl.o
 .debug_frame   0x00007794     0x4888 plugins/gpu_unai/gpulib_if.o
 .debug_frame   0x0000c01c      0x17c plugins/cdrcimg/cdrcimg.o
 .debug_frame   0x0000c198       0x28 plugins/dfinput/main.o
 .debug_frame   0x0000c1c0       0x5c plugins/dfinput/pad.o
 .debug_frame   0x0000c21c       0x54 plugins/dfinput/guncon.o
 .debug_frame   0x0000c270       0xe0 frontend/cspace.o
 .debug_frame   0x0000c350       0xf8 frontend/libpicofe/in_sdl.o
 .debug_frame   0x0000c448       0xa0 frontend/libpicofe/plat_sdl.o
 .debug_frame   0x0000c4e8       0x40 frontend/libpicofe/plat_dummy.o
 .debug_frame   0x0000c528      0x140 frontend/libpicofe/linux/in_evdev.o
 .debug_frame   0x0000c668      0x1c4 frontend/plat_sdl.o
 .debug_frame   0x0000c82c       0x80 frontend/libpicofe/gl.o
 .debug_frame   0x0000c8ac       0x50 frontend/libpicofe/gl_platform.o
 .debug_frame   0x0000c8fc      0x2c4 frontend/plugin_lib.o
 .debug_frame   0x0000cbc0      0x128 frontend/libpicofe/linux/plat.o
 .debug_frame   0x0000cce8       0x5c frontend/libpicofe/readpng.o
 .debug_frame   0x0000cd44       0x84 frontend/libpicofe/fonts.o
 .debug_frame   0x0000cdc8      0x89c frontend/menu.o
 .debug_frame   0x0000d664      0x3dc frontend/libpicofe/input.o
 .debug_frame   0x0000da40       0xac frontend/pl_gun_ts.o
 .debug_frame   0x0000daec      0x378 frontend/main.o
 .debug_frame   0x0000de64       0x7c frontend/plugin.o

.debug_str      0x00000000    0x113a4
 *(.debug_str)
 .debug_str     0x00000000      0xd60 libpcsxcore/cdriso.o
                                0xefb (size before relaxing)
 .debug_str     0x00000d60      0x5e1 libpcsxcore/cdrom.o
                                0xd80 (size before relaxing)
 .debug_str     0x00001341      0x3e5 libpcsxcore/cheat.o
                                0x78e (size before relaxing)
 .debug_str     0x00001726      0x2c4 libpcsxcore/debug.o
                                0x895 (size before relaxing)
 .debug_str     0x000019ea      0x144 libpcsxcore/decode_xa.o
                                0x3fc (size before relaxing)
 .debug_str     0x00001b2e      0x38c libpcsxcore/disr3000a.o
                                0x904 (size before relaxing)
 .debug_str     0x00001eba      0x1a8 libpcsxcore/mdec.o
                                0x848 (size before relaxing)
 .debug_str     0x00002062      0x45f libpcsxcore/misc.o
                                0xc7a (size before relaxing)
 .debug_str     0x000024c1      0xb07 libpcsxcore/plugins.o
                               0x1366 (size before relaxing)
 .debug_str     0x00002fc8      0x12a libpcsxcore/ppf.o
                                0x575 (size before relaxing)
 .debug_str     0x000030f2      0x9a4 libpcsxcore/psxbios.o
                               0x1237 (size before relaxing)
 .debug_str     0x00003a96       0x79 libpcsxcore/psxcommon.o
                                0x471 (size before relaxing)
 .debug_str     0x00003b0f      0x2d7 libpcsxcore/psxcounters.o
                                0xa03 (size before relaxing)
 .debug_str     0x00003de6       0x97 libpcsxcore/psxdma.o
                                0x735 (size before relaxing)
 .debug_str     0x00003e7d       0x50 libpcsxcore/psxhle.o
                                0x63b (size before relaxing)
 .debug_str     0x00003ecd       0x79 libpcsxcore/psxhw.o
                                0x76e (size before relaxing)
 .debug_str     0x00003f46      0x3b2 libpcsxcore/psxinterpreter.o
                                0xa48 (size before relaxing)
 .debug_str     0x000042f8      0x134 libpcsxcore/psxmem.o
                                0x5c1 (size before relaxing)
 .debug_str     0x0000442c       0x68 libpcsxcore/r3000a.o
                                0x723 (size before relaxing)
 .debug_str     0x00004494      0x281 libpcsxcore/sio.o
                                0xa03 (size before relaxing)
 .debug_str     0x00004715      0x1d0 libpcsxcore/socket.o
                                0x454 (size before relaxing)
 .debug_str     0x000048e5       0x19 libpcsxcore/spu.o
                                0x274 (size before relaxing)
 .debug_str     0x000048fe      0x241 libpcsxcore/gte.o
                                0x702 (size before relaxing)
 .debug_str     0x00004b3f      0x192 libpcsxcore/gte_nf.o
                                0x679 (size before relaxing)
 .debug_str     0x00004cd1       0x33 libpcsxcore/gte_divider.o
                                0x2b0 (size before relaxing)
 .debug_str     0x00004d04     0x1fa1 libpcsxcore/new_dynarec/new_dynarec.o
                               0x27ba (size before relaxing)
 .debug_str     0x00006ca5      0x40d libpcsxcore/new_dynarec/pcsxmem.o
                                0xbc2 (size before relaxing)
 .debug_str     0x000070b2      0x151 libpcsxcore/new_dynarec/emu_if.o
                                0x8e2 (size before relaxing)
 .debug_str     0x00007203       0x3d plugins/dfsound/dma.o
                                0x2b7 (size before relaxing)
 .debug_str     0x00007240      0x353 plugins/dfsound/freeze.o
                                0x635 (size before relaxing)
 .debug_str     0x00007593      0x299 plugins/dfsound/registers.o
                                0x75d (size before relaxing)
 .debug_str     0x0000782c      0x59d plugins/dfsound/spu.o
                                0xe00 (size before relaxing)
 .debug_str     0x00007dc9       0x50 plugins/dfsound/out.o
                                0x2c8 (size before relaxing)
 .debug_str     0x00007e19       0x44 plugins/dfsound/nullsnd.o
                                 0xa9 (size before relaxing)
 .debug_str     0x00007e5d      0x26e plugins/dfsound/sdl.o
                                0x551 (size before relaxing)
 .debug_str     0x000080cb      0x46d plugins/gpulib/gpu.o
                                0x8ae (size before relaxing)
 .debug_str     0x00008538       0x97 plugins/gpulib/vout_pl.o
                                0x52c (size before relaxing)
 .debug_str     0x000085cf     0x2d76 plugins/gpu_unai/gpulib_if.o
                               0x341f (size before relaxing)
 .debug_str     0x0000b345      0x15a plugins/cdrcimg/cdrcimg.o
                                0x616 (size before relaxing)
 .debug_str     0x0000b49f       0x6f plugins/dfinput/main.o
                                0x178 (size before relaxing)
 .debug_str     0x0000b50e      0x15b plugins/dfinput/pad.o
                                0x29f (size before relaxing)
 .debug_str     0x0000b669       0x52 plugins/dfinput/guncon.o
                                 0xbc (size before relaxing)
 .debug_str     0x0000b6bb       0xba frontend/cspace.o
                                0x110 (size before relaxing)
 .debug_str     0x0000b775     0x1058 frontend/libpicofe/in_sdl.o
                               0x15d1 (size before relaxing)
 .debug_str     0x0000c7cd      0x964 frontend/libpicofe/plat_sdl.o
                               0x1bee (size before relaxing)
 .debug_str     0x0000d131       0x5c frontend/libpicofe/plat_dummy.o
                                0x1ab (size before relaxing)
 .debug_str     0x0000d18d      0x2ec frontend/libpicofe/linux/in_evdev.o
                                0x6fc (size before relaxing)
 .debug_str     0x0000d479      0x497 frontend/plat_sdl.o
                               0x18a6 (size before relaxing)
 .debug_str     0x0000d910      0x50c frontend/libpicofe/gl.o
                                0x7a8 (size before relaxing)
 .debug_str     0x0000de1c      0x44b frontend/libpicofe/gl_platform.o
                                0xb73 (size before relaxing)
 .debug_str     0x0000e267      0x55a frontend/plugin_lib.o
                                0xf31 (size before relaxing)
 .debug_str     0x0000e7c1      0x140 frontend/libpicofe/linux/plat.o
                                0x49c (size before relaxing)
 .debug_str     0x0000e901      0xc71 frontend/libpicofe/readpng.o
                               0x1132 (size before relaxing)
 .debug_str     0x0000f572       0x6f frontend/libpicofe/fonts.o
                                0x2ec (size before relaxing)
 .debug_str     0x0000f5e1     0x14b6 frontend/menu.o
                               0x27d4 (size before relaxing)
 .debug_str     0x00010a97      0x440 frontend/libpicofe/input.o
                                0x99b (size before relaxing)
 .debug_str     0x00010ed7      0x12b frontend/pl_gun_ts.o
                                0x419 (size before relaxing)
 .debug_str     0x00011002      0x351 frontend/main.o
                               0x1158 (size before relaxing)
 .debug_str     0x00011353       0x51 frontend/plugin.o
                                0x614 (size before relaxing)

.debug_loc      0x00000000    0x7f2a7
 *(.debug_loc)
 .debug_loc     0x00000000     0x2198 libpcsxcore/cdriso.o
 .debug_loc     0x00002198      0xe93 libpcsxcore/cdrom.o
 .debug_loc     0x0000302b     0x1410 libpcsxcore/cheat.o
 .debug_loc     0x0000443b      0xd96 libpcsxcore/debug.o
 .debug_loc     0x000051d1     0x13e3 libpcsxcore/decode_xa.o
 .debug_loc     0x000065b4     0x2ab7 libpcsxcore/disr3000a.o
 .debug_loc     0x0000906b     0x11b1 libpcsxcore/mdec.o
 .debug_loc     0x0000a21c      0xfd3 libpcsxcore/misc.o
 .debug_loc     0x0000b1ef      0x8c5 libpcsxcore/plugins.o
 .debug_loc     0x0000bab4      0xa29 libpcsxcore/ppf.o
 .debug_loc     0x0000c4dd     0x2f49 libpcsxcore/psxbios.o
 .debug_loc     0x0000f426       0x98 libpcsxcore/psxcommon.o
 .debug_loc     0x0000f4be      0x562 libpcsxcore/psxcounters.o
 .debug_loc     0x0000fa20      0x4e9 libpcsxcore/psxdma.o
 .debug_loc     0x0000ff09       0xa0 libpcsxcore/psxhle.o
 .debug_loc     0x0000ffa9      0x74e libpcsxcore/psxhw.o
 .debug_loc     0x000106f7      0x718 libpcsxcore/psxinterpreter.o
 .debug_loc     0x00010e0f      0x812 libpcsxcore/psxmem.o
 .debug_loc     0x00011621      0x151 libpcsxcore/r3000a.o
 .debug_loc     0x00011772      0xf4b libpcsxcore/sio.o
 .debug_loc     0x000126bd      0x2f2 libpcsxcore/socket.o
 .debug_loc     0x000129af     0xc469 libpcsxcore/gte.o
 .debug_loc     0x0001ee18      0xda6 libpcsxcore/gte_nf.o
 .debug_loc     0x0001fbbe       0xb7 libpcsxcore/gte_divider.o
 .debug_loc     0x0001fc75    0x26015 libpcsxcore/new_dynarec/new_dynarec.o
 .debug_loc     0x00045c8a      0x7ff libpcsxcore/new_dynarec/pcsxmem.o
 .debug_loc     0x00046489      0x32c libpcsxcore/new_dynarec/emu_if.o
 .debug_loc     0x000467b5       0xcf plugins/dfsound/dma.o
 .debug_loc     0x00046884      0x2cc plugins/dfsound/freeze.o
 .debug_loc     0x00046b50      0x65e plugins/dfsound/registers.o
 .debug_loc     0x000471ae     0x349d plugins/dfsound/spu.o
 .debug_loc     0x0004a64b       0x3f plugins/dfsound/out.o
 .debug_loc     0x0004a68a      0x1fc plugins/dfsound/sdl.o
 .debug_loc     0x0004a886      0xfeb plugins/gpulib/gpu.o
 .debug_loc     0x0004b871      0x279 plugins/gpulib/vout_pl.o
 .debug_loc     0x0004baea    0x25ad4 plugins/gpu_unai/gpulib_if.o
 .debug_loc     0x000715be      0x785 plugins/cdrcimg/cdrcimg.o
 .debug_loc     0x00071d43       0x2d plugins/dfinput/main.o
 .debug_loc     0x00071d70      0x249 plugins/dfinput/pad.o
 .debug_loc     0x00071fb9       0xbd plugins/dfinput/guncon.o
 .debug_loc     0x00072076      0x6f5 frontend/cspace.o
 .debug_loc     0x0007276b      0xaf6 frontend/libpicofe/in_sdl.o
 .debug_loc     0x00073261      0x4dc frontend/libpicofe/plat_sdl.o
 .debug_loc     0x0007373d      0xe8f frontend/libpicofe/linux/in_evdev.o
 .debug_loc     0x000745cc      0x4ce frontend/plat_sdl.o
 .debug_loc     0x00074a9a      0x2cd frontend/libpicofe/gl.o
 .debug_loc     0x00074d67      0x15f frontend/libpicofe/gl_platform.o
 .debug_loc     0x00074ec6     0x116b frontend/plugin_lib.o
 .debug_loc     0x00076031      0x57d frontend/libpicofe/linux/plat.o
 .debug_loc     0x000765ae      0x7a9 frontend/libpicofe/readpng.o
 .debug_loc     0x00076d57      0x33f frontend/libpicofe/fonts.o
 .debug_loc     0x00077096     0x52f7 frontend/menu.o
 .debug_loc     0x0007c38d     0x1873 frontend/libpicofe/input.o
 .debug_loc     0x0007dc00      0x50d frontend/pl_gun_ts.o
 .debug_loc     0x0007e10d     0x109e frontend/main.o
 .debug_loc     0x0007f1ab       0xfc frontend/plugin.o

.debug_macinfo
 *(.debug_macinfo)

.debug_weaknames
 *(.debug_weaknames)

.debug_funcnames
 *(.debug_funcnames)

.debug_typenames
 *(.debug_typenames)

.debug_varnames
 *(.debug_varnames)

.debug_pubtypes
 *(.debug_pubtypes)

.debug_ranges   0x00000000    0x2a050
 *(.debug_ranges)
 .debug_ranges  0x00000000      0x9a0 libpcsxcore/cdriso.o
 .debug_ranges  0x000009a0      0x558 libpcsxcore/cdrom.o
 .debug_ranges  0x00000ef8       0xd8 libpcsxcore/cheat.o
 .debug_ranges  0x00000fd0      0x438 libpcsxcore/decode_xa.o
 .debug_ranges  0x00001408       0x40 libpcsxcore/disr3000a.o
 .debug_ranges  0x00001448      0x240 libpcsxcore/mdec.o
 .debug_ranges  0x00001688       0x60 libpcsxcore/misc.o
 .debug_ranges  0x000016e8      0x380 libpcsxcore/plugins.o
 .debug_ranges  0x00001a68       0x48 libpcsxcore/ppf.o
 .debug_ranges  0x00001ab0      0x8d8 libpcsxcore/psxbios.o
 .debug_ranges  0x00002388      0x308 libpcsxcore/psxcounters.o
 .debug_ranges  0x00002690      0x138 libpcsxcore/psxdma.o
 .debug_ranges  0x000027c8      0x2d8 libpcsxcore/psxinterpreter.o
 .debug_ranges  0x00002aa0       0x60 libpcsxcore/psxmem.o
 .debug_ranges  0x00002b00      0x140 libpcsxcore/sio.o
 .debug_ranges  0x00002c40       0x18 libpcsxcore/socket.o
 .debug_ranges  0x00002c58     0x3fe0 libpcsxcore/gte.o
 .debug_ranges  0x00006c38      0x4c0 libpcsxcore/gte_nf.o
 .debug_ranges  0x000070f8    0x106e8 libpcsxcore/new_dynarec/new_dynarec.o
 .debug_ranges  0x000177e0      0x140 libpcsxcore/new_dynarec/pcsxmem.o
 .debug_ranges  0x00017920       0x40 libpcsxcore/new_dynarec/emu_if.o
 .debug_ranges  0x00017960       0x88 plugins/dfsound/freeze.o
 .debug_ranges  0x000179e8      0x160 plugins/dfsound/registers.o
 .debug_ranges  0x00017b48      0xc08 plugins/dfsound/spu.o
 .debug_ranges  0x00018750       0x48 plugins/dfsound/sdl.o
 .debug_ranges  0x00018798      0x140 plugins/gpulib/gpu.o
 .debug_ranges  0x000188d8    0x10200 plugins/gpu_unai/gpulib_if.o
 .debug_ranges  0x00028ad8       0xa8 plugins/cdrcimg/cdrcimg.o
 .debug_ranges  0x00028b80       0x80 plugins/dfinput/pad.o
 .debug_ranges  0x00028c00       0xe0 frontend/libpicofe/in_sdl.o
 .debug_ranges  0x00028ce0       0x30 frontend/libpicofe/plat_sdl.o
 .debug_ranges  0x00028d10       0x78 frontend/libpicofe/linux/in_evdev.o
 .debug_ranges  0x00028d88       0x70 frontend/libpicofe/gl_platform.o
 .debug_ranges  0x00028df8      0x1a8 frontend/plugin_lib.o
 .debug_ranges  0x00028fa0       0x20 frontend/libpicofe/linux/plat.o
 .debug_ranges  0x00028fc0       0xe0 frontend/libpicofe/readpng.o
 .debug_ranges  0x000290a0       0x90 frontend/libpicofe/fonts.o
 .debug_ranges  0x00029130      0xb40 frontend/menu.o
 .debug_ranges  0x00029c70      0x2c0 frontend/libpicofe/input.o
 .debug_ranges  0x00029f30       0x20 frontend/pl_gun_ts.o
 .debug_ranges  0x00029f50      0x100 frontend/main.o

.gnu.attributes
 *(.gnu.attributes)

.note.gnu.arm.ident
 *(.note.gnu.arm.ident)

/DISCARD/
 *(.note.GNU-stack)
 *(.gnu_debuglink)
 *(.gnu.lto_*)
OUTPUT(pcsx elf32-littlearm)
